(dp1
(S'Atlanta'
p2
S'Los+Angeles'
p3
tp4
F2175
s(g3
S'Phoenix'
p5
tp6
F372
s(S'Minnesota'
p7
S'Brooklyn'
p8
tp9
F1365
s(S'Boston'
p10
S'Orlando'
p11
tp12
F1291
s(g7
S'Detroit'
p13
tp14
F854
s(S'Denver'
p15
g5
tp16
F821
s(S'Charlotte'
p17
S'Memphis'
p18
tp19
F619
s(S'Sacramento'
p20
S'New+Orleans'
p21
tp22
F2278
s(S'Toronoto'
p23
g15
tp24
F1507
s(g7
S'Cleveland'
p25
tp26
F916
s(S'Portland'
p27
g25
tp28
F2450
s(g15
S'Utah'
p29
tp30
F452
s(g15
S'Houston'
p31
tp32
F1032
s(g2
g20
tp33
F2468
s(S'Milwaukee'
p34
g3
tp35
F2056
s(S'Oklahoma+City'
p36
g25
tp37
F1057
s(g20
g5
tp38
F756
s(g27
g11
tp39
F3035
s(g34
g25
tp40
F436
s(g29
g21
tp41
F1673
s(g36
g20
tp42
F1621
s(g34
S'San+Antonio'
p43
tp44
F1275
s(g29
g11
tp45
F2289
s(g17
S'Indiana'
p46
tp47
F602
s(g27
S'Chicago'
p48
tp49
F2121
s(g13
g31
tp50
F1302
s(S'Dallas'
p51
g18
tp52
F452
s(S'New+York'
p53
g51
tp54
F1548
s(g53
g11
tp55
F1078
s(g43
g29
tp56
F1235
s(S'Washington+DC'
p57
g3
tp58
F2669
s(g27
g31
tp59
F2241
s(g10
S'Miami'
p60
tp61
F1496
s(g17
g3
tp62
F2419
s(g53
g29
tp63
F2225
s(g51
g60
tp64
F1312
s(g23
g48
tp65
F519
s(g43
g5
tp66
F981
s(g29
g3
tp67
F668
s(g3
S'Philadelphia'
p68
tp69
F2709
s(g15
g43
tp70
F933
s(g10
g3
tp71
F2983
s(g23
g60
tp72
F1485
s(S'Oakland'
p73
g51
tp74
F1721
s(g15
g17
tp75
F1564
s(g7
g43
tp76
F1409
s(g23
g46
tp77
F486
s(g53
g5
tp78
F2408
s(g10
g13
tp79
F707
s(g60
g11
tp80
F236
s(g29
g46
tp81
F1572
s(g36
g68
tp82
F1384
s(g43
g17
tp83
F1233
s(g25
g18
tp84
F730
s(g51
g36
tp85
F207
s(g15
g20
tp86
F1165
s(g13
g60
tp87
F1385
s(g73
g25
tp88
F2456
s(g2
g25
tp89
F710
s(g15
g3
tp90
F1016
s(g23
g2
tp91
F951
s(g3
g20
tp92
F384
s(g31
g3
tp93
F1546
s(g2
g11
tp94
F438
s(g18
g21
tp95
F395
s(g8
g36
tp96
F1454
s(g15
g27
tp97
F1243
s(g43
g11
tp98
F1158
s(g53
g21
tp99
F1305
s(g73
g13
tp100
F2393
s(g46
g21
tp101
F859
s(g34
g7
tp102
F494
s(g57
g21
tp103
F1085
s(g23
g27
tp104
F2623
s(g43
g21
tp105
F543
s(g8
g68
tp106
F100
s(g2
g31
tp107
F793
s(g51
g31
tp108
F239
s(g73
g29
tp109
F903
s(g13
g27
tp110
F2387
s(g3
g21
tp111
F1894
s(g2
g68
tp112
F782
s(g2
g21
tp113
F469
s(g60
g57
tp114
F1053
s(g13
g36
tp115
F1028
s(g68
g3
tp116
F2711
s(g23
g43
tp117
F1689
s(g18
g46
tp118
F502
s(g15
g18
tp119
F1095
s(g13
g51
tp120
F1187
s(g29
g5
tp121
F609
s(g34
g11
tp122
F1250
s(g34
g48
tp123
F92.599999999999994
s(g57
g5
tp124
F2300
s(g3
g3
tp125
F1
s(g60
g68
tp126
F1196
s(g34
g8
tp127
F885
s(g43
g25
tp128
F1456
s(g5
g46
tp129
F1736
s(g2
g43
tp130
F988
s(g31
g57
tp131
F1408
s(g2
g13
tp132
F720
s(g17
g29
tp133
F2012
s(g8
g3
tp134
F2794
s(g2
g53
tp135
F868
s(g10
g18
tp136
F1316
s(g13
g5
tp137
F1986
s(g53
g3
tp138
F2790
s(g68
g46
tp139
F670
s(g73
g31
tp140
F1917
s(g73
g15
tp141
F1248
s(g7
g3
tp142
F1893
s(g53
g60
tp143
F1282
s(g8
g5
tp144
F2412
s(g57
g18
tp145
F877
s(g7
g2
tp146
F1286
s(g27
g68
tp147
F2864
s(g73
g57
tp148
F2807
s(g27
g21
tp149
F2510
s(g10
g68
tp150
F310
s(g2
g27
tp151
F2599
s(g23
g20
tp152
F2544
s(g13
g68
tp153
F584
s(g43
g18
tp154
F726
s(g13
g57
tp155
F521
s(g57
g46
tp156
F618
s(g23
g36
tp157
F1256
s(g73
g8
tp158
F2904
s(g68
g5
tp159
F2342
s(g29
g57
tp160
F2106
s(g13
g43
tp161
F1461
s(g17
g25
tp162
F515
s(g8
g27
tp163
F2898
s(g7
g53
tp164
F1360
s(g43
g3
tp165
F1353
s(g27
g43
tp166
F2070
s(g23
g68
tp167
F498
s(g53
g8
tp168
F5.0999999999999996
s(g2
g15
tp169
F1404
s(g43
g57
tp170
F1604
s(g29
g68
tp171
F2177
s(g25
g11
tp172
F1036
s(g29
g25
tp173
F1781
s(g73
g18
tp174
F2080
s(g15
g60
tp175
F2065
s(g36
g60
tp176
F1510
s(g48
g11
tp177
F1154
s(g34
g36
tp178
F871
s(g36
g48
tp179
F795
s(g7
g60
tp180
F1948
s(g73
g20
tp181
F81.799999999999997
s(g48
g25
tp182
F346
s(g20
g11
tp183
F2893
s(g51
g29
tp184
F1170
s(g2
g29
tp185
F1853
s(g73
g36
tp186
F1616
s(g7
g68
tp187
F1330
s(g13
g17
tp188
F632
s(g60
g5
tp189
F2361
s(g53
g48
tp190
F789
s(g29
g20
tp191
F820
s(g8
g25
tp192
F466
s(g27
g17
tp193
F2758
s(g57
g68
tp194
F139
s(g7
g46
tp195
F733
s(g25
g20
tp196
F2370
s(g29
g18
tp197
F1544
s(g60
g3
tp198
F2733
s(g73
g48
tp199
F2126
s(g13
g3
tp200
F2283
s(g2
g48
tp201
F716
s(g7
g10
tp202
F1554
s(g13
g18
tp203
F744
s(g7
g11
tp204
F1723
s(g51
g3
tp205
F1437
s(g48
g29
tp206
F1451
s(g23
g31
tp207
F1530
s(g53
g31
tp208
F1628
s(g60
g18
tp209
F1047
s(g10
g46
tp210
F937
s(g36
g21
tp211
F709
s(g17
g5
tp212
F2089
s(g73
g7
tp213
F1882
s(g73
g43
tp214
F1722
s(g60
g31
tp215
F1189
s(g10
g57
tp216
F439
s(g7
g23
tp217
F1090
s(g57
g20
tp218
F2725
s(g25
g3
tp219
F2344
s(g68
g11
tp220
F991
s(g2
g17
tp221
F245
s(g53
g43
tp222
F1823
s(g15
g51
tp223
F797
s(g10
g25
tp224
F640
s(g23
g17
tp225
F758
s(g8
g43
tp226
F1828
s(g10
g36
tp227
F1690
s(g51
g48
tp228
F926
s(g34
g29
tp229
F1492
s(g3
g18
tp230
F1792
s(g11
g21
tp231
F639
s(g10
g43
tp232
F2043
s(g15
g57
tp233
F1657
s(g73
g10
tp234
F3094
s(g10
g48
tp235
F982
s(g17
g11
tp236
F524
s(g13
g48
tp237
F283
s(g34
g51
tp238
F1002
s(g15
g11
tp239
F1840
s(g34
g15
tp240
F1045
s(g34
g60
tp241
F1474
s(g29
g31
tp242
F1405
s(g53
g20
tp243
F2816
s(g10
g53
tp244
F215
s(g34
g17
tp245
F852
s(g2
g5
tp246
F1846
s(g23
g21
tp247
F1295
s(g8
g29
tp248
F2230
s(g51
g17
tp249
F1026
s(g13
g11
tp250
F1160
s(g8
g60
tp251
F1286
s(g34
g20
tp252
F2082
s(g34
g53
tp253
F880
s(g10
g27
tp254
F3087
s(g73
g17
tp255
F2707
s(g8
g46
tp256
F740
s(g11
g46
tp257
F1010
s(g15
g68
tp258
F1728
s(g48
g46
tp259
F166
s(g53
g15
tp260
F1778
s(g7
g20
tp261
F1804
s(g25
g46
tp262
F298
s(g10
g15
tp263
F1972
s(g27
g36
tp264
F1909
s(g31
g18
tp265
F568
s(g13
g20
tp266
F2309
s(g34
g10
tp267
F1074
s(g7
g17
tp268
F1322
s(g73
g27
tp269
F630
s(g17
g57
tp270
F399
s(g60
g29
tp271
F2516
s(g60
g17
tp272
F730
s(g27
g20
tp273
F581
s(g31
g20
tp274
F1929
s(g25
g68
tp275
F432
s(g15
g25
tp276
F1334
s(g18
g3
tp277
F1793
s(g7
g5
tp278
F1766
s(g53
g68
tp279
F97
s(g53
g27
tp280
F2894
s(g60
g46
tp281
F1236
s(g8
g11
tp282
F1081
s(g36
g5
tp283
F960
s(g15
g8
tp284
F1783
s(g51
g46
tp285
F937
s(g8
g48
tp286
F793
s(g2
g51
tp287
F781
s(g31
g5
tp288
F1174
s(g27
g5
tp289
F1335
s(g13
g25
tp290
F170
s(g36
g57
tp291
F1343
s(g51
g57
tp292
F1329
s(g36
g29
tp293
F1064
s(g51
g8
tp294
F1553
s(g73
g68
tp295
F2869
s(g27
g29
tp296
F940
s(g51
g11
tp297
F1088
s(g36
g11
tp298
F1285
s(g2
g10
tp299
F1081
s(g31
g21
tp300
F348
s(g10
g8
tp301
F216
s(g51
g25
tp302
F1182
s(g25
g21
tp303
F1053
s(g13
g21
tp304
F1066
s(g23
g53
tp305
F491
s(g2
g36
tp306
F849
s(g7
g21
tp307
F1379
s(g2
g46
tp308
F573
s(g23
g13
tp309
F231
s(g34
g23
tp310
F487
s(g10
g17
tp311
F845
s(g53
g25
tp312
F462
s(g73
g5
tp313
F742
s(g25
g57
tp314
F369
s(g23
g3
tp315
F2518
s(g8
g21
tp316
F1309
s(g60
g43
tp317
F1384
s(g43
g68
tp318
F1743
s(g23
g29
tp319
F1954
s(g34
g27
tp320
F2065
s(g17
g68
tp321
F543
s(g23
g57
tp322
F478
s(g15
g21
tp323
F1301
s(g10
g20
tp324
F3009
s(g34
g2
tp325
F812
s(g53
g46
tp326
F736
s(g23
g5
tp327
F2215
s(g73
g21
tp328
F2263
s(g2
g18
tp329
F384
s(g51
g21
tp330
F505
s(g27
g60
tp331
F3259
s(g43
g46
tp332
F1211
s(g48
g3
tp333
F2015
s(g51
g68
tp334
F1468
s(g17
g31
tp335
F1037
s(g7
g18
tp336
F985
s(g36
g3
tp337
F1328
s(g53
g17
tp338
F632
s(g8
g20
tp339
F2820
s(g25
g5
tp340
F2014
s(g10
g31
tp341
F1848
s(g51
g27
tp342
F2035
s(g53
g18
tp343
F1096
s(g73
g11
tp344
F2878
s(g13
g29
tp345
F1719
s(g8
g18
tp346
F1101
s(g60
g48
tp347
F1379
s(g48
g18
tp348
F533
s(g2
g8
tp349
F872
s(g73
g3
tp350
F372
s(g13
g46
tp351
F257
s(g18
g5
tp352
F1424
s(g23
g51
tp353
F1415
s(g23
g11
tp354
F1280
s(g73
g46
tp355
F2272
s(g7
g36
tp356
F946
s(g34
g73
tp357
F2163
s(g17
g20
tp358
F2679
s(g34
g18
tp359
F622
s(g48
g68
tp360
F759
s(g15
g48
tp361
F1005
s(g60
g20
tp362
F3116
s(g68
g18
tp363
F1015
s(g34
g13
tp364
F383
s(g18
g11
tp365
F821
s(g15
g46
tp366
F1123
s(g73
g2
tp367
F2462
s(g31
g11
tp368
F963
s(g27
g57
tp369
F2801
s(g27
g18
tp370
F2249
s(g2
g60
tp371
F663
s(g73
g60
tp372
F3103
s(g34
g57
tp373
F787
s(g10
g51
tp374
F1768
s(g3
g11
tp375
F2509
s(g43
g31
tp376
F197
s(g34
g46
tp377
F263
s(g73
g23
tp378
F2630
s(g7
g48
tp379
F567
s(g60
g21
tp380
F865
s(g51
g43
tp381
F274
s(g48
g20
tp382
F2041
s(g13
g8
tp383
F619
s(g23
g25
tp384
F291
s(g17
g21
tp385
F713
s(g34
g31
tp386
F1172
s(g36
g17
tp387
F1093
s(g73
g53
tp388
F2900
s(g5
g21
tp389
F1522
s(g8
g57
tp390
F229
s(g36
g43
tp391
F467
s(g48
g17
tp392
F756
s(g48
g43
tp393
F1243
s(g23
g8
tp394
F495
s(g27
g46
tp395
F2267
s(g31
g46
tp396
F1053
s(g7
g57
tp397
F1267
s(g51
g5
tp398
F1065
s(g36
g46
tp399
F779
s(g68
g20
tp400
F2785
s(g10
g5
tp401
F2648
s(g8
g31
tp402
F1632
s(g34
g21
tp403
F1015
s(g31
g68
tp404
F1548
s(g3
g46
tp405
F2104
s(g2
g57
tp406
F639
s(g7
g51
tp407
F1097
s(g10
g29
tp408
F2419
s(g51
g20
tp409
F1726
s(g27
g3
tp410
F965
s(g7
g31
tp411
F1334
s(g7
g29
tp412
F1328
s(g15
g36
tp413
F680
s(g43
g20
tp414
F1736
s(g23
g18
tp415
F972
s(g25
g31
tp416
F1297
s(g36
g31
tp417
F445
s(g48
g31
tp418
F1083
s(g7
g15
tp419
F952
s(g18
g20
tp420
F2086
s(g13
g15
tp421
F1272
s(g53
g36
tp422
F1449
s(g57
g11
tp423
F846
s(g13
g53
tp424
F614
s(g23
g10
tp425
F550
s(g7
g27
tp426
F1614
s(g48
g5
tp427
F1753
s(g11
g5
tp428
F2135
s(g8
g17
tp429
F635
s(g48
g57
tp430
F697
s(g60
g25
tp431
F1243
s(g53
g57
tp432
F226
s(g20
g46
tp433
F2192
s(g34
g68
tp434
F850
s(g48
g21
tp435
F926
s(g36
g18
tp436
F467
s(g34
g5
tp437
F1829
s(g68
g21
tp438
F1224
s(g10
g21
tp439
F1525
s.