(lp1
c__builtin__
set
p2
((lp3
V0021301020
p4
aV0021301022
p5
aV0021300877
p6
aV0021301039
p7
aV0021301007
p8
aV0021300088
p9
aV0021301005
p10
aV0021301004
p11
aV0021301003
p12
aV0021300939
p13
aV0021301001
p14
aV0021301000
p15
aV0021300934
p16
aV0021300935
p17
aV0021300936
p18
aV0021300937
p19
aV0021300930
p20
aV0021300931
p21
aV0021300932
p22
aV0021300933
p23
aV0021300505
p24
aV0021300504
p25
aV0021300507
p26
aV0021300506
p27
aV0021300501
p28
aV0021300500
p29
aV0021300279
p30
aV0021300502
p31
aV0021300277
p32
aV0021300276
p33
aV0021300275
p34
aV0021300274
p35
aV0021300509
p36
aV0021300508
p37
aV0021300271
p38
aV0021300270
p39
aV0021300376
p40
aV0021300078
p41
aV0021300374
p42
aV0021300375
p43
aV0021300372
p44
aV0021300373
p45
aV0021300370
p46
aV0021300371
p47
aV0021300071
p48
aV0021300070
p49
aV0021300073
p50
aV0021300072
p51
aV0021300075
p52
aV0021300074
p53
aV0021300077
p54
aV0021300379
p55
aV0021300643
p56
aV0021300692
p57
aV0021301179
p58
aV0021301178
p59
aV0021301173
p60
aV0021301172
p61
aV0021301171
p62
aV0021301081
p63
aV0021301177
p64
aV0021301176
p65
aV0021301175
p66
aV0021301174
p67
aV0021301072
p68
aV0021300438
p69
aV0021301070
p70
aV0021301071
p71
aV0021301076
p72
aV0021301077
p73
aV0021301074
p74
aV0021301075
p75
aV0021300431
p76
aV0021300430
p77
aV0021300433
p78
aV0021300432
p79
aV0021300435
p80
aV0021300434
p81
aV0021300437
p82
aV0021300436
p83
aV0021300208
p84
aV0021300209
p85
aV0021300089
p86
aV0021300202
p87
aV0021300938
p88
aV0021300200
p89
aV0021300201
p90
aV0021300206
p91
aV0021300207
p92
aV0021300204
p93
aV0021300205
p94
aV0021300800
p95
aV0021300801
p96
aV0021300802
p97
aV0021300803
p98
aV0021300804
p99
aV0021300805
p100
aV0021300806
p101
aV0021300807
p102
aV0021300808
p103
aV0021300809
p104
aV0021300478
p105
aV0021300673
p106
aV0021300619
p107
aV0021300618
p108
aV0021300179
p109
aV0021300615
p110
aV0021300614
p111
aV0021300617
p112
aV0021300616
p113
aV0021300611
p114
aV0021300610
p115
aV0021300613
p116
aV0021300612
p117
aV0021300754
p118
aV0021300755
p119
aV0021300756
p120
aV0021300757
p121
aV0021300750
p122
aV0021300751
p123
aV0021300752
p124
aV0021300753
p125
aV0021300810
p126
aV0021300758
p127
aV0021300759
p128
aV0021301186
p129
aV0021301187
p130
aV0021301184
p131
aV0021301185
p132
aV0021301182
p133
aV0021301183
p134
aV0021301180
p135
aV0021301181
p136
aV0021301008
p137
aV0021301188
p138
aV0021301189
p139
aV0021300098
p140
aV0021300041
p141
aV0021301229
p142
aV0021301228
p143
aV0021300897
p144
aV0021301226
p145
aV0021300895
p146
aV0021300894
p147
aV0021300893
p148
aV0021300892
p149
aV0021300891
p150
aV0021301220
p151
aV0021300101
p152
aV0021300100
p153
aV0021300103
p154
aV0021300102
p155
aV0021300105
p156
aV0021300104
p157
aV0021300107
p158
aV0021300106
p159
aV0021300109
p160
aV0021300108
p161
aV0021300278
p162
aV0021300622
p163
aV0021300623
p164
aV0021300327
p165
aV0021300249
p166
aV0021300978
p167
aV0021300979
p168
aV0021300970
p169
aV0021300273
p170
aV0021300972
p171
aV0021300973
p172
aV0021300974
p173
aV0021300975
p174
aV0021300976
p175
aV0021300977
p176
aV0021300628
p177
aV0021300629
p178
aV0021300079
p179
aV0021300377
p180
aV0021300521
p181
aV0021300069
p182
aV0021300035
p183
aV0021300034
p184
aV0021300037
p185
aV0021300036
p186
aV0021300031
p187
aV0021300030
p188
aV0021300033
p189
aV0021300032
p190
aV0021300039
p191
aV0021300038
p192
aV0021300520
p193
aV0021301137
p194
aV0021301136
p195
aV0021301135
p196
aV0021301134
p197
aV0021301133
p198
aV0021301132
p199
aV0021301131
p200
aV0021301130
p201
aV0021301036
p202
aV0021301037
p203
aV0021301034
p204
aV0021301035
p205
aV0021301032
p206
aV0021301033
p207
aV0021301139
p208
aV0021301031
p209
aV0021300475
p210
aV0021300474
p211
aV0021300477
p212
aV0021300476
p213
aV0021300578
p214
aV0021300579
p215
aV0021300473
p216
aV0021300472
p217
aV0021300574
p218
aV0021300575
p219
aV0021300576
p220
aV0021300577
p221
aV0021300570
p222
aV0021300571
p223
aV0021300572
p224
aV0021300573
p225
aV0021300246
p226
aV0021300328
p227
aV0021300244
p228
aV0021300245
p229
aV0021300242
p230
aV0021300243
p231
aV0021300240
p232
aV0021300241
p233
aV0021300321
p234
aV0021300320
p235
aV0021300323
p236
aV0021300322
p237
aV0021300325
p238
aV0021300324
p239
aV0021300248
p240
aV0021300326
p241
aV0021301006
p242
aV0021300710
p243
aV0021300711
p244
aV0021300712
p245
aV0021300713
p246
aV0021300714
p247
aV0021300715
p248
aV0021300716
p249
aV0021300717
p250
aV0021300718
p251
aV0021300719
p252
aV0021301142
p253
aV0021300026
p254
aV0021301140
p255
aV0021301141
p256
aV0021301146
p257
aV0021301147
p258
aV0021301144
p259
aV0021301145
p260
aV0021301148
p261
aV0021301149
p262
aV0021300024
p263
aV0021300443
p264
aV0021300546
p265
aV0021300859
p266
aV0021300858
p267
aV0021300694
p268
aV0021301143
p269
aV0021300853
p270
aV0021300852
p271
aV0021300851
p272
aV0021300850
p273
aV0021300857
p274
aV0021300856
p275
aV0021300855
p276
aV0021300854
p277
aV0021300441
p278
aV0021300397
p279
aV0021300149
p280
aV0021300148
p281
aV0021300158
p282
aV0021300145
p283
aV0021300144
p284
aV0021300147
p285
aV0021300146
p286
aV0021300141
p287
aV0021300140
p288
aV0021300143
p289
aV0021300142
p290
aV0021300664
p291
aV0021300665
p292
aV0021300666
p293
aV0021300667
p294
aV0021300660
p295
aV0021300392
p296
aV0021300789
p297
aV0021300788
p298
aV0021300787
p299
aV0021300786
p300
aV0021300785
p301
aV0021300784
p302
aV0021300783
p303
aV0021300782
p304
aV0021300781
p305
aV0021300780
p306
aV0021301138
p307
aV0021300159
p308
aV0021300187
p309
aV0021300016
p310
aV0021300538
p311
aV0021300186
p312
aV0021301002
p313
aV0021300483
p314
aV0021300589
p315
aV0021300588
p316
aV0021300585
p317
aV0021300584
p318
aV0021300587
p319
aV0021300586
p320
aV0021300581
p321
aV0021300580
p322
aV0021300583
p323
aV0021300399
p324
aV0021300539
p325
aV0021300061
p326
aV0021301216
p327
aV0021301217
p328
aV0021301214
p329
aV0021301215
p330
aV0021301212
p331
aV0021301213
p332
aV0021301210
p333
aV0021301211
p334
aV0021301218
p335
aV0021301219
p336
aV0021300863
p337
aV0021300439
p338
aV0021300099
p339
aV0021301073
p340
aV0021300658
p341
aV0021300470
p342
aV0021300923
p343
aV0021300922
p344
aV0021300921
p345
aV0021301206
p346
aV0021301030
p347
aV0021300926
p348
aV0021300925
p349
aV0021300924
p350
aV0021300530
p351
aV0021300531
p352
aV0021300929
p353
aV0021300928
p354
aV0021300534
p355
aV0021300535
p356
aV0021300536
p357
aV0021300537
p358
aV0021300282
p359
aV0021300283
p360
aV0021300280
p361
aV0021300281
p362
aV0021300286
p363
aV0021300287
p364
aV0021300284
p365
aV0021300285
p366
aV0021300288
p367
aV0021300221
p368
aV0021301122
p369
aV0021300137
p370
aV0021300365
p371
aV0021300364
p372
aV0021300367
p373
aV0021300366
p374
aV0021300048
p375
aV0021300360
p376
aV0021300363
p377
aV0021300362
p378
aV0021300044
p379
aV0021300045
p380
aV0021300046
p381
aV0021300047
p382
aV0021300369
p383
aV0021300368
p384
aV0021300042
p385
aV0021300867
p386
aV0021300416
p387
aV0021300027
p388
aV0021300649
p389
aV0021301128
p390
aV0021301108
p391
aV0021301109
p392
aV0021301106
p393
aV0021301107
p394
aV0021301104
p395
aV0021301105
p396
aV0021301102
p397
aV0021301103
p398
aV0021301100
p399
aV0021301101
p400
aV0021301061
p401
aV0021301060
p402
aV0021301063
p403
aV0021301062
p404
aV0021300408
p405
aV0021300409
p406
aV0021301067
p407
aV0021301066
p408
aV0021301069
p409
aV0021301068
p410
aV0021300406
p411
aV0021300407
p412
aV0021300400
p413
aV0021300401
p414
aV0021300402
p415
aV0021300403
p416
aV0021300219
p417
aV0021300218
p418
aV0021300968
p419
aV0021300211
p420
aV0021300210
p421
aV0021300213
p422
aV0021300212
p423
aV0021300215
p424
aV0021300214
p425
aV0021300217
p426
aV0021300216
p427
aV0021300817
p428
aV0021300816
p429
aV0021300815
p430
aV0021300814
p431
aV0021300813
p432
aV0021300812
p433
aV0021300811
p434
aV0021300467
p435
aV0021300819
p436
aV0021300818
p437
aV0021300620
p438
aV0021300621
p439
aV0021300749
p440
aV0021300748
p441
aV0021300624
p442
aV0021300625
p443
aV0021300626
p444
aV0021300627
p445
aV0021300743
p446
aV0021300742
p447
aV0021300741
p448
aV0021300740
p449
aV0021300747
p450
aV0021300746
p451
aV0021300745
p452
aV0021300744
p453
aV0021301010
p454
aV0021300151
p455
aV0021300908
p456
aV0021301195
p457
aV0021301194
p458
aV0021301197
p459
aV0021301196
p460
aV0021301191
p461
aV0021301190
p462
aV0021301193
p463
aV0021301192
p464
aV0021301199
p465
aV0021301198
p466
aV0021300018
p467
aV0021300459
p468
aV0021301009
p469
aV0021300458
p470
aV0021300139
p471
aV0021300862
p472
aV0021300901
p473
aV0021300860
p474
aV0021300861
p475
aV0021300076
p476
aV0021300468
p477
aV0021300864
p478
aV0021300865
p479
aV0021300868
p480
aV0021300869
p481
aV0021300903
p482
aV0021300134
p483
aV0021300135
p484
aV0021300136
p485
aV0021300454
p486
aV0021300130
p487
aV0021300131
p488
aV0021300132
p489
aV0021300133
p490
aV0021300453
p491
aV0021300138
p492
aV0021300231
p493
aV0021300452
p494
aV0021301170
p495
aV0021300230
p496
aV0021300907
p497
aV0021300418
p498
aV0021300906
p499
aV0021301225
p500
aV0021300268
p501
aV0021300533
p502
aV0021300969
p503
aV0021300517
p504
aV0021300967
p505
aV0021300966
p506
aV0021300965
p507
aV0021300964
p508
aV0021300963
p509
aV0021300962
p510
aV0021300961
p511
aV0021300960
p512
aV0021300239
p513
aV0021300661
p514
aV0021300008
p515
aV0021300410
p516
aV0021300900
p517
aV0021300238
p518
aV0021300662
p519
aV0021300957
p520
aV0021300001
p521
aV0021300002
p522
aV0021300663
p523
aV0021300004
p524
aV0021300005
p525
aV0021300006
p526
aV0021300007
p527
aV0021300487
p528
aV0021301048
p529
aV0021300952
p530
aV0021300481
p531
aV0021300950
p532
aV0021300668
p533
aV0021300951
p534
aV0021300669
p535
aV0021300448
p536
aV0021300449
p537
aV0021300918
p538
aV0021300919
p539
aV0021301029
p540
aV0021301028
p541
aV0021301224
p542
aV0021301025
p543
aV0021301024
p544
aV0021301027
p545
aV0021300911
p546
aV0021300444
p547
aV0021300445
p548
aV0021300446
p549
aV0021300915
p550
aV0021300563
p551
aV0021300562
p552
aV0021300561
p553
aV0021300560
p554
aV0021300567
p555
aV0021300566
p556
aV0021300565
p557
aV0021300564
p558
aV0021300488
p559
aV0021300569
p560
aV0021300568
p561
aV0021300068
p562
aV0021300489
p563
aV0021300255
p564
aV0021300254
p565
aV0021300257
p566
aV0021300256
p567
aV0021300251
p568
aV0021300250
p569
aV0021300253
p570
aV0021300252
p571
aV0021300314
p572
aV0021300315
p573
aV0021300316
p574
aV0021300317
p575
aV0021300259
p576
aV0021300311
p577
aV0021300312
p578
aV0021300313
p579
aV0021300602
p580
aV0021300291
p581
aV0021300086
p582
aV0021300290
p583
aV0021300013
p584
aV0021300129
p585
aV0021300707
p586
aV0021300706
p587
aV0021300705
p588
aV0021300704
p589
aV0021300703
p590
aV0021300551
p591
aV0021300701
p592
aV0021300700
p593
aV0021300060
p594
aV0021300709
p595
aV0021300708
p596
aV0021301098
p597
aV0021301099
p598
aV0021301153
p599
aV0021301152
p600
aV0021301155
p601
aV0021301154
p602
aV0021301157
p603
aV0021301156
p604
aV0021301090
p605
aV0021301158
p606
aV0021300128
p607
aV0021301093
p608
aV0021301094
p609
aV0021301095
p610
aV0021301096
p611
aV0021301097
p612
aV0021300299
p613
aV0021300182
p614
aV0021300866
p615
aV0021300351
p616
aV0021300845
p617
aV0021300828
p618
aV0021300829
p619
aV0021300826
p620
aV0021300827
p621
aV0021300824
p622
aV0021300825
p623
aV0021300822
p624
aV0021300823
p625
aV0021300820
p626
aV0021300821
p627
aV0021300170
p628
aV0021300171
p629
aV0021300172
p630
aV0021300678
p631
aV0021300174
p632
aV0021300175
p633
aV0021300176
p634
aV0021300177
p635
aV0021300178
p636
aV0021300672
p637
aV0021300671
p638
aV0021300670
p639
aV0021300677
p640
aV0021300676
p641
aV0021300675
p642
aV0021300674
p643
aV0021300772
p644
aV0021300773
p645
aV0021300770
p646
aV0021300771
p647
aV0021300776
p648
aV0021300777
p649
aV0021300774
p650
aV0021300775
p651
aV0021300778
p652
aV0021300779
p653
aV0021301042
p654
aV0021300198
p655
aV0021300199
p656
aV0021300723
p657
aV0021300896
p658
aV0021301038
p659
aV0021300117
p660
aV0021300009
p661
aV0021300927
p662
aV0021300582
p663
aV0021300190
p664
aV0021301205
p665
aV0021301204
p666
aV0021301207
p667
aV0021300191
p668
aV0021301201
p669
aV0021301200
p670
aV0021301203
p671
aV0021301202
p672
aV0021301209
p673
aV0021301208
p674
aV0021300686
p675
aV0021300687
p676
aV0021300684
p677
aV0021300685
p678
aV0021300682
p679
aV0021300683
p680
aV0021300680
p681
aV0021300681
p682
aV0021300688
p683
aV0021300689
p684
aV0021300003
p685
aV0021301016
p686
aV0021301057
p687
aV0021300484
p688
aV0021300485
p689
aV0021300954
p690
aV0021300955
p691
aV0021300480
p692
aV0021300953
p693
aV0021300529
p694
aV0021300528
p695
aV0021300527
p696
aV0021300526
p697
aV0021300525
p698
aV0021300524
p699
aV0021300523
p700
aV0021300522
p701
aV0021300958
p702
aV0021300959
p703
aV0021300358
p704
aV0021300359
p705
aV0021300293
p706
aV0021300292
p707
aV0021300295
p708
aV0021300294
p709
aV0021300297
p710
aV0021300296
p711
aV0021300350
p712
aV0021300298
p713
aV0021300352
p714
aV0021300353
p715
aV0021300354
p716
aV0021300355
p717
aV0021300356
p718
aV0021300357
p719
aV0021300053
p720
aV0021300052
p721
aV0021300051
p722
aV0021300050
p723
aV0021300057
p724
aV0021300056
p725
aV0021300055
p726
aV0021300054
p727
aV0021300192
p728
aV0021300193
p729
aV0021300059
p730
aV0021300058
p731
aV0021300196
p732
aV0021300197
p733
aV0021300194
p734
aV0021300195
p735
aV0021300428
p736
aV0021300247
p737
aV0021300429
p738
aV0021301119
p739
aV0021301118
p740
aV0021301115
p741
aV0021301114
p742
aV0021301117
p743
aV0021301116
p744
aV0021301111
p745
aV0021301110
p746
aV0021301113
p747
aV0021301112
p748
aV0021301054
p749
aV0021301055
p750
aV0021300411
p751
aV0021300559
p752
aV0021300417
p753
aV0021301051
p754
aV0021301052
p755
aV0021301053
p756
aV0021300552
p757
aV0021300553
p758
aV0021300419
p759
aV0021301088
p760
aV0021300556
p761
aV0021301059
p762
aV0021300554
p763
aV0021300555
p764
aV0021301087
p765
aV0021301091
p766
aV0021300790
p767
aV0021300228
p768
aV0021300229
p769
aV0021301086
p770
aV0021300224
p771
aV0021300225
p772
aV0021300226
p773
aV0021300227
p774
aV0021300220
p775
aV0021300420
p776
aV0021300222
p777
aV0021300223
p778
aV0021300679
p779
aV0021301084
p780
aV0021300899
p781
aV0021301080
p782
aV0021301083
p783
aV0021300898
p784
aV0021300272
p785
aV0021301082
p786
aV0021300637
p787
aV0021300636
p788
aV0021300635
p789
aV0021300634
p790
aV0021300633
p791
aV0021300632
p792
aV0021300738
p793
aV0021300630
p794
aV0021300736
p795
aV0021300737
p796
aV0021300734
p797
aV0021300735
p798
aV0021300732
p799
aV0021300733
p800
aV0021300639
p801
aV0021300731
p802
aV0021300415
p803
aV0021301223
p804
aV0021301222
p805
aV0021300329
p806
aV0021300730
p807
aV0021301221
p808
aV0021300890
p809
aV0021300413
p810
aV0021300412
p811
aV0021300848
p812
aV0021301056
p813
aV0021300080
p814
aV0021300081
p815
aV0021300873
p816
aV0021300872
p817
aV0021300875
p818
aV0021300874
p819
aV0021301019
p820
aV0021300087
p821
aV0021300123
p822
aV0021300122
p823
aV0021300121
p824
aV0021300120
p825
aV0021300127
p826
aV0021300126
p827
aV0021300125
p828
aV0021300124
p829
aV0021300642
p830
aV0021300844
p831
aV0021300640
p832
aV0021300641
p833
aV0021300646
p834
aV0021300647
p835
aV0021300644
p836
aV0021300645
p837
aV0021300648
p838
aV0021300414
p839
aV0021300095
p840
aV0021300847
p841
aV0021301078
p842
aV0021301065
p843
aV0021300093
p844
aV0021300913
p845
aV0021300550
p846
aV0021300092
p847
aV0021300992
p848
aV0021300993
p849
aV0021300990
p850
aV0021300991
p851
aV0021300996
p852
aV0021300997
p853
aV0021300994
p854
aV0021300995
p855
aV0021301058
p856
aV0021300998
p857
aV0021300999
p858
aV0021300557
p859
aV0021300440
p860
aV0021301079
p861
aV0021300157
p862
aV0021301227
p863
aV0021300910
p864
aV0021300394
p865
aV0021300395
p866
aV0021300396
p867
aV0021301026
p868
aV0021300390
p869
aV0021300391
p870
aV0021300019
p871
aV0021300393
p872
aV0021300017
p873
aV0021301021
p874
aV0021300015
p875
aV0021300014
p876
aV0021300398
p877
aV0021300012
p878
aV0021300011
p879
aV0021300010
p880
aV0021300912
p881
aV0021300914
p882
aV0021300471
p883
aV0021300447
p884
aV0021300651
p885
aV0021300650
p886
aV0021300346
p887
aV0021300909
p888
aV0021301011
p889
aV0021301012
p890
aV0021301013
p891
aV0021301014
p892
aV0021301015
p893
aV0021300986
p894
aV0021301017
p895
aV0021301018
p896
aV0021300456
p897
aV0021300455
p898
aV0021300902
p899
aV0021300905
p900
aV0021300904
p901
aV0021300451
p902
aV0021300450
p903
aV0021300516
p904
aV0021300916
p905
aV0021300514
p906
aV0021300515
p907
aV0021300512
p908
aV0021300513
p909
aV0021300510
p910
aV0021300511
p911
aV0021300260
p912
aV0021300261
p913
aV0021300262
p914
aV0021300263
p915
aV0021300264
p916
aV0021300265
p917
aV0021300518
p918
aV0021300519
p919
aV0021300303
p920
aV0021300302
p921
aV0021300301
p922
aV0021300300
p923
aV0021300307
p924
aV0021300306
p925
aV0021300305
p926
aV0021300304
p927
aV0021300062
p928
aV0021300063
p929
aV0021300309
p930
aV0021300308
p931
aV0021300066
p932
aV0021300067
p933
aV0021300064
p934
aV0021300065
p935
aV0021300608
p936
aV0021300160
p937
aV0021301064
p938
aV0021300702
p939
aV0021300269
p940
aV0021300532
p941
aV0021301164
p942
aV0021301165
p943
aV0021301166
p944
aV0021301167
p945
aV0021301160
p946
aV0021301161
p947
aV0021301089
p948
aV0021301163
p949
aV0021300422
p950
aV0021300423
p951
aV0021301085
p952
aV0021300421
p953
aV0021300426
p954
aV0021300427
p955
aV0021300424
p956
aV0021300425
p957
aV0021300169
p958
aV0021300971
p959
aV0021300310
p960
aV0021300318
p961
aV0021300153
p962
aV0021300168
p963
aV0021300319
p964
aV0021300839
p965
aV0021300838
p966
aV0021300835
p967
aV0021300834
p968
aV0021300837
p969
aV0021300836
p970
aV0021300831
p971
aV0021300830
p972
aV0021300833
p973
aV0021300832
p974
aV0021300167
p975
aV0021300166
p976
aV0021300165
p977
aV0021300164
p978
aV0021300163
p979
aV0021300162
p980
aV0021300161
p981
aV0021300609
p982
aV0021300606
p983
aV0021300607
p984
aV0021300604
p985
aV0021300605
p986
aV0021300091
p987
aV0021300603
p988
aV0021300600
p989
aV0021300601
p990
aV0021300761
p991
aV0021300760
p992
aV0021300763
p993
aV0021300762
p994
aV0021300765
p995
aV0021300764
p996
aV0021300767
p997
aV0021300920
p998
aV0021300769
p999
aV0021300768
p1000
aV0021300766
p1001
aV0021300258
p1002
aV0021300917
p1003
aV0021300479
p1004
aV0021300876
p1005
aV0021301162
p1006
aV0021300289
p1007
aV0021300631
p1008
aV0021300880
p1009
aV0021300739
p1010
aV0021300558
p1011
aV0021300888
p1012
aV0021300889
p1013
aV0021301230
p1014
aV0021300881
p1015
aV0021300882
p1016
aV0021300883
p1017
aV0021300884
p1018
aV0021300885
p1019
aV0021300886
p1020
aV0021300887
p1021
aV0021300112
p1022
aV0021300113
p1023
aV0021300110
p1024
aV0021300111
p1025
aV0021300116
p1026
aV0021300987
p1027
aV0021300114
p1028
aV0021300115
p1029
aV0021300118
p1030
aV0021300119
p1031
aV0021300695
p1032
aV0021300596
p1033
aV0021300697
p1034
aV0021300696
p1035
aV0021300691
p1036
aV0021300690
p1037
aV0021300693
p1038
aV0021300988
p1039
aV0021300361
p1040
aV0021300638
p1041
aV0021300699
p1042
aV0021300698
p1043
aV0021300049
p1044
aV0021300499
p1045
aV0021300498
p1046
aV0021300442
p1047
aV0021300493
p1048
aV0021300492
p1049
aV0021300491
p1050
aV0021300490
p1051
aV0021300497
p1052
aV0021300496
p1053
aV0021300495
p1054
aV0021300494
p1055
aV0021300945
p1056
aV0021300944
p1057
aV0021300947
p1058
aV0021300946
p1059
aV0021300941
p1060
aV0021300940
p1061
aV0021300943
p1062
aV0021300942
p1063
aV0021300949
p1064
aV0021300948
p1065
aV0021300349
p1066
aV0021300348
p1067
aV0021300347
p1068
aV0021300040
p1069
aV0021300345
p1070
aV0021300344
p1071
aV0021300343
p1072
aV0021300342
p1073
aV0021300341
p1074
aV0021300340
p1075
aV0021300189
p1076
aV0021300188
p1077
aV0021300090
p1078
aV0021300025
p1079
aV0021300022
p1080
aV0021300023
p1081
aV0021300020
p1082
aV0021300021
p1083
aV0021300181
p1084
aV0021300180
p1085
aV0021300183
p1086
aV0021300043
p1087
aV0021300185
p1088
aV0021300184
p1089
aV0021300028
p1090
aV0021300029
p1091
aV0021300956
p1092
aV0021300503
p1093
aV0021301120
p1094
aV0021301121
p1095
aV0021301049
p1096
aV0021301123
p1097
aV0021301124
p1098
aV0021301125
p1099
aV0021301126
p1100
aV0021301127
p1101
aV0021301043
p1102
aV0021301129
p1103
aV0021301041
p1104
aV0021301040
p1105
aV0021301047
p1106
aV0021301046
p1107
aV0021301045
p1108
aV0021301044
p1109
aV0021300549
p1110
aV0021300548
p1111
aV0021300464
p1112
aV0021300465
p1113
aV0021300462
p1114
aV0021300463
p1115
aV0021300460
p1116
aV0021300461
p1117
aV0021300541
p1118
aV0021300540
p1119
aV0021300543
p1120
aV0021300542
p1121
aV0021300545
p1122
aV0021300544
p1123
aV0021300547
p1124
aV0021300469
p1125
aV0021300233
p1126
aV0021300232
p1127
aV0021300338
p1128
aV0021300339
p1129
aV0021300237
p1130
aV0021300236
p1131
aV0021300235
p1132
aV0021300234
p1133
aV0021300332
p1134
aV0021300333
p1135
aV0021300330
p1136
aV0021300331
p1137
aV0021300336
p1138
aV0021300337
p1139
aV0021300334
p1140
aV0021300335
p1141
aV0021300879
p1142
aV0021301151
p1143
aV0021300457
p1144
aV0021300486
p1145
aV0021301150
p1146
aV0021300729
p1147
aV0021300728
p1148
aV0021300725
p1149
aV0021300724
p1150
aV0021300727
p1151
aV0021300726
p1152
aV0021300721
p1153
aV0021300720
p1154
aV0021300878
p1155
aV0021300722
p1156
aV0021301159
p1157
aV0021300203
p1158
aV0021301092
p1159
aV0021300466
p1160
aV0021300378
p1161
aV0021300097
p1162
aV0021300096
p1163
aV0021300846
p1164
aV0021300094
p1165
aV0021300840
p1166
aV0021300841
p1167
aV0021300842
p1168
aV0021300843
p1169
aV0021300156
p1170
aV0021300266
p1171
aV0021300154
p1172
aV0021300155
p1173
aV0021300152
p1174
aV0021300849
p1175
aV0021300150
p1176
aV0021301168
p1177
aV0021300798
p1178
aV0021300799
p1179
aV0021300653
p1180
aV0021300652
p1181
aV0021300655
p1182
aV0021300654
p1183
aV0021300657
p1184
aV0021300656
p1185
aV0021300659
p1186
aV0021300791
p1187
aV0021300792
p1188
aV0021300793
p1189
aV0021300794
p1190
aV0021300795
p1191
aV0021300796
p1192
aV0021300797
p1193
aV0021300173
p1194
aV0021300267
p1195
aV0021301169
p1196
aV0021300482
p1197
aV0021300981
p1198
aV0021300980
p1199
aV0021300983
p1200
aV0021300982
p1201
aV0021300985
p1202
aV0021300984
p1203
aV0021300598
p1204
aV0021300599
p1205
aV0021300989
p1206
aV0021300597
p1207
aV0021300594
p1208
aV0021300595
p1209
aV0021300592
p1210
aV0021300593
p1211
aV0021300590
p1212
aV0021300591
p1213
aV0021300389
p1214
aV0021300388
p1215
aV0021300383
p1216
aV0021300382
p1217
aV0021300381
p1218
aV0021300380
p1219
aV0021300387
p1220
aV0021300386
p1221
aV0021300385
p1222
aV0021300384
p1223
aV0021300871
p1224
aV0021301050
p1225
aV0021301023
p1226
aV0021300870
p1227
aV0021300082
p1228
aV0021300404
p1229
aV0021300083
p1230
aV0021300405
p1231
aV0021300084
p1232
aV0021300085
p1233
atRp1234
ag2
((lp1235
V0021400648
p1236
aV0021400241
p1237
aV0021400129
p1238
aV0021400117
p1239
aV0021400116
p1240
aV0021400115
p1241
aV0021400114
p1242
aV0021400113
p1243
aV0021400112
p1244
aV0021400111
p1245
aV0021400110
p1246
aV0021400612
p1247
aV0021400119
p1248
aV0021400770
p1249
aV0021400613
p1250
aV0021400274
p1251
aV0021400614
p1252
aV0021400615
p1253
aV0021400616
p1254
aV0021400558
p1255
aV0021400617
p1256
aV0021400557
p1257
aV0021401132
p1258
aV0021400555
p1259
aV0021400554
p1260
aV0021400553
p1261
aV0021400552
p1262
aV0021400418
p1263
aV0021400212
p1264
aV0021400416
p1265
aV0021400417
p1266
aV0021400414
p1267
aV0021400415
p1268
aV0021400412
p1269
aV0021400591
p1270
aV0021400559
p1271
aV0021400411
p1272
aV0021400360
p1273
aV0021400361
p1274
aV0021400209
p1275
aV0021400363
p1276
aV0021400364
p1277
aV0021400365
p1278
aV0021400366
p1279
aV0021400367
p1280
aV0021400368
p1281
aV0021400202
p1282
aV0021400201
p1283
aV0021400200
p1284
aV0021400207
p1285
aV0021400206
p1286
aV0021400205
p1287
aV0021400596
p1288
aV0021400162
p1289
aV0021400163
p1290
aV0021400160
p1291
aV0021400161
p1292
aV0021400166
p1293
aV0021400167
p1294
aV0021400164
p1295
aV0021401092
p1296
aV0021400446
p1297
aV0021400168
p1298
aV0021400169
p1299
aV0021401109
p1300
aV0021400362
p1301
aV0021401108
p1302
aV0021401138
p1303
aV0021400678
p1304
aV0021401139
p1305
aV0021401178
p1306
aV0021400902
p1307
aV0021400522
p1308
aV0021400523
p1309
aV0021400520
p1310
aV0021400521
p1311
aV0021401169
p1312
aV0021401168
p1313
aV0021400524
p1314
aV0021401069
p1315
aV0021401165
p1316
aV0021401164
p1317
aV0021401167
p1318
aV0021400529
p1319
aV0021401161
p1320
aV0021401160
p1321
aV0021401163
p1322
aV0021401162
p1323
aV0021400485
p1324
aV0021400484
p1325
aV0021400487
p1326
aV0021400486
p1327
aV0021400481
p1328
aV0021400480
p1329
aV0021400483
p1330
aV0021400482
p1331
aV0021400845
p1332
aV0021400844
p1333
aV0021400847
p1334
aV0021400846
p1335
aV0021400489
p1336
aV0021400840
p1337
aV0021400843
p1338
aV0021400842
p1339
aV0021400890
p1340
aV0021401166
p1341
aV0021400341
p1342
aV0021400637
p1343
aV0021400118
p1344
aV0021400506
p1345
aV0021400610
p1346
aV0021400948
p1347
aV0021400949
p1348
aV0021401028
p1349
aV0021400944
p1350
aV0021400945
p1351
aV0021400946
p1352
aV0021400947
p1353
aV0021400940
p1354
aV0021400829
p1355
aV0021400942
p1356
aV0021400943
p1357
aV0021400828
p1358
aV0021400739
p1359
aV0021400738
p1360
aV0021400737
p1361
aV0021400736
p1362
aV0021400735
p1363
aV0021400734
p1364
aV0021400733
p1365
aV0021400732
p1366
aV0021400731
p1367
aV0021400730
p1368
aV0021401011
p1369
aV0021400531
p1370
aV0021400634
p1371
aV0021400635
p1372
aV0021400632
p1373
aV0021400633
p1374
aV0021401017
p1375
aV0021400530
p1376
aV0021401019
p1377
aV0021401018
p1378
aV0021401152
p1379
aV0021400638
p1380
aV0021400639
p1381
aV0021400988
p1382
aV0021400388
p1383
aV0021400389
p1384
aV0021400822
p1385
aV0021400382
p1386
aV0021400383
p1387
aV0021400380
p1388
aV0021400381
p1389
aV0021400386
p1390
aV0021400387
p1391
aV0021400384
p1392
aV0021400534
p1393
aV0021400537
p1394
aV0021400536
p1395
aV0021400778
p1396
aV0021400539
p1397
aV0021400497
p1398
aV0021400471
p1399
aV0021400309
p1400
aV0021400682
p1401
aV0021400023
p1402
aV0021400022
p1403
aV0021400748
p1404
aV0021400020
p1405
aV0021400027
p1406
aV0021400026
p1407
aV0021400025
p1408
aV0021400024
p1409
aV0021400742
p1410
aV0021400743
p1411
aV0021400029
p1412
aV0021400741
p1413
aV0021400746
p1414
aV0021400747
p1415
aV0021400744
p1416
aV0021400745
p1417
aV0021400841
p1418
aV0021400494
p1419
aV0021400332
p1420
aV0021400870
p1421
aV0021400568
p1422
aV0021400871
p1423
aV0021400872
p1424
aV0021400927
p1425
aV0021400247
p1426
aV0021400246
p1427
aV0021400245
p1428
aV0021400301
p1429
aV0021400243
p1430
aV0021400242
p1431
aV0021400128
p1432
aV0021400240
p1433
aV0021400126
p1434
aV0021400127
p1435
aV0021400124
p1436
aV0021400125
p1437
aV0021400122
p1438
aV0021400123
p1439
aV0021400249
p1440
aV0021400248
p1441
aV0021400204
p1442
aV0021401200
p1443
aV0021400569
p1444
aV0021400876
p1445
aV0021400580
p1446
aV0021400440
p1447
aV0021400305
p1448
aV0021400339
p1449
aV0021400291
p1450
aV0021400470
p1451
aV0021401203
p1452
aV0021400445
p1453
aV0021401205
p1454
aV0021400687
p1455
aV0021400686
p1456
aV0021400685
p1457
aV0021400684
p1458
aV0021400683
p1459
aV0021401206
p1460
aV0021400681
p1461
aV0021400680
p1462
aV0021400566
p1463
aV0021400567
p1464
aV0021400564
p1465
aV0021400565
p1466
aV0021400562
p1467
aV0021400563
p1468
aV0021400560
p1469
aV0021400688
p1470
aV0021400441
p1471
aV0021401201
p1472
aV0021401202
p1473
aV0021400338
p1474
aV0021401204
p1475
aV0021400444
p1476
aV0021400447
p1477
aV0021401207
p1478
aV0021400333
p1479
aV0021401209
p1480
aV0021400331
p1481
aV0021400330
p1482
aV0021400337
p1483
aV0021400336
p1484
aV0021400335
p1485
aV0021400334
p1486
aV0021400232
p1487
aV0021400233
p1488
aV0021400230
p1489
aV0021400231
p1490
aV0021400236
p1491
aV0021400551
p1492
aV0021400234
p1493
aV0021400235
p1494
aV0021400238
p1495
aV0021400239
p1496
aV0021400490
p1497
aV0021400889
p1498
aV0021400689
p1499
aV0021400208
p1500
aV0021400972
p1501
aV0021401045
p1502
aV0021400491
p1503
aV0021400413
p1504
aV0021401059
p1505
aV0021400410
p1506
aV0021401016
p1507
aV0021401054
p1508
aV0021401057
p1509
aV0021401056
p1510
aV0021401051
p1511
aV0021401050
p1512
aV0021401053
p1513
aV0021400769
p1514
aV0021401114
p1515
aV0021401115
p1516
aV0021401116
p1517
aV0021401117
p1518
aV0021401110
p1519
aV0021401111
p1520
aV0021401112
p1521
aV0021401113
p1522
aV0021401010
p1523
aV0021401118
p1524
aV0021401119
p1525
aV0021400834
p1526
aV0021400835
p1527
aV0021400121
p1528
aV0021400837
p1529
aV0021400830
p1530
aV0021400831
p1531
aV0021400832
p1532
aV0021400833
p1533
aV0021400838
p1534
aV0021400839
p1535
aV0021400760
p1536
aV0021401042
p1537
aV0021400898
p1538
aV0021400761
p1539
aV0021400203
p1540
aV0021400994
p1541
aV0021400762
p1542
aV0021400069
p1543
aV0021400369
p1544
aV0021400067
p1545
aV0021400066
p1546
aV0021400550
p1547
aV0021400064
p1548
aV0021400063
p1549
aV0021400062
p1550
aV0021400061
p1551
aV0021400060
p1552
aV0021400669
p1553
aV0021400668
p1554
aV0021400704
p1555
aV0021400705
p1556
aV0021400702
p1557
aV0021400703
p1558
aV0021400700
p1559
aV0021400701
p1560
aV0021400661
p1561
aV0021400660
p1562
aV0021400663
p1563
aV0021400041
p1564
aV0021400665
p1565
aV0021400664
p1566
aV0021400667
p1567
aV0021400666
p1568
aV0021400908
p1569
aV0021400909
p1570
aV0021401181
p1571
aV0021401180
p1572
aV0021401187
p1573
aV0021401186
p1574
aV0021401185
p1575
aV0021401184
p1576
aV0021400900
p1577
aV0021400901
p1578
aV0021401189
p1579
aV0021400903
p1580
aV0021400904
p1581
aV0021400905
p1582
aV0021400906
p1583
aV0021400907
p1584
aV0021401005
p1585
aV0021400958
p1586
aV0021401015
p1587
aV0021400776
p1588
aV0021400993
p1589
aV0021400992
p1590
aV0021400561
p1591
aV0021400658
p1592
aV0021400895
p1593
aV0021400710
p1594
aV0021400018
p1595
aV0021401014
p1596
aV0021400012
p1597
aV0021400013
p1598
aV0021400010
p1599
aV0021400011
p1600
aV0021400016
p1601
aV0021400017
p1602
aV0021400014
p1603
aV0021400015
p1604
aV0021400158
p1605
aV0021401214
p1606
aV0021400031
p1607
aV0021400409
p1608
aV0021400408
p1609
aV0021400649
p1610
aV0021400405
p1611
aV0021400404
p1612
aV0021400407
p1613
aV0021400590
p1614
aV0021400401
p1615
aV0021400400
p1616
aV0021400403
p1617
aV0021400402
p1618
aV0021400377
p1619
aV0021400258
p1620
aV0021400375
p1621
aV0021400374
p1622
aV0021400373
p1623
aV0021400372
p1624
aV0021400278
p1625
aV0021400370
p1626
aV0021400276
p1627
aV0021400277
p1628
aV0021400419
p1629
aV0021400275
p1630
aV0021400272
p1631
aV0021400273
p1632
aV0021400379
p1633
aV0021400378
p1634
aV0021400171
p1635
aV0021400170
p1636
aV0021400173
p1637
aV0021400172
p1638
aV0021400175
p1639
aV0021400174
p1640
aV0021400177
p1641
aV0021400176
p1642
aV0021400179
p1643
aV0021400178
p1644
aV0021401179
p1645
aV0021401146
p1646
aV0021400899
p1647
aV0021400499
p1648
aV0021400653
p1649
aV0021400625
p1650
aV0021400624
p1651
aV0021400538
p1652
aV0021400627
p1653
aV0021401150
p1654
aV0021401151
p1655
aV0021400533
p1656
aV0021400532
p1657
aV0021400535
p1658
aV0021401155
p1659
aV0021401156
p1660
aV0021401157
p1661
aV0021401158
p1662
aV0021401159
p1663
aV0021400159
p1664
aV0021401021
p1665
aV0021400302
p1666
aV0021400303
p1667
aV0021400300
p1668
aV0021400873
p1669
aV0021400306
p1670
aV0021400307
p1671
aV0021400304
p1672
aV0021400877
p1673
aV0021400878
p1674
aV0021400879
p1675
aV0021400308
p1676
aV0021400622
p1677
aV0021400858
p1678
aV0021400990
p1679
aV0021401058
p1680
aV0021400953
p1681
aV0021400952
p1682
aV0021400951
p1683
aV0021400950
p1684
aV0021400957
p1685
aV0021400956
p1686
aV0021400955
p1687
aV0021400954
p1688
aV0021400892
p1689
aV0021400893
p1690
aV0021400959
p1691
aV0021400891
p1692
aV0021400896
p1693
aV0021400897
p1694
aV0021400894
p1695
aV0021400581
p1696
aV0021401055
p1697
aV0021400422
p1698
aV0021401024
p1699
aV0021401025
p1700
aV0021401026
p1701
aV0021400626
p1702
aV0021401020
p1703
aV0021400620
p1704
aV0021401022
p1705
aV0021401023
p1706
aV0021400584
p1707
aV0021400585
p1708
aV0021400586
p1709
aV0021400587
p1710
aV0021400629
p1711
aV0021401029
p1712
aV0021400582
p1713
aV0021400583
p1714
aV0021400399
p1715
aV0021400398
p1716
aV0021400391
p1717
aV0021400390
p1718
aV0021400393
p1719
aV0021400392
p1720
aV0021400395
p1721
aV0021400394
p1722
aV0021400397
p1723
aV0021400396
p1724
aV0021401141
p1725
aV0021400864
p1726
aV0021401006
p1727
aV0021401211
p1728
aV0021400611
p1729
aV0021400999
p1730
aV0021400056
p1731
aV0021400057
p1732
aV0021400054
p1733
aV0021400055
p1734
aV0021400052
p1735
aV0021400053
p1736
aV0021400050
p1737
aV0021400646
p1738
aV0021400751
p1739
aV0021400750
p1740
aV0021400753
p1741
aV0021400752
p1742
aV0021400755
p1743
aV0021400754
p1744
aV0021400058
p1745
aV0021400756
p1746
aV0021400886
p1747
aV0021400874
p1748
aV0021401183
p1749
aV0021400526
p1750
aV0021400527
p1751
aV0021400691
p1752
aV0021400525
p1753
aV0021400165
p1754
aV0021400692
p1755
aV0021400850
p1756
aV0021400693
p1757
aV0021400139
p1758
aV0021400138
p1759
aV0021400135
p1760
aV0021400134
p1761
aV0021400137
p1762
aV0021400136
p1763
aV0021400131
p1764
aV0021400130
p1765
aV0021400133
p1766
aV0021400132
p1767
aV0021400861
p1768
aV0021400152
p1769
aV0021400836
p1770
aV0021400513
p1771
aV0021400512
p1772
aV0021400579
p1773
aV0021400578
p1774
aV0021400443
p1775
aV0021400575
p1776
aV0021400574
p1777
aV0021400577
p1778
aV0021400576
p1779
aV0021400571
p1780
aV0021400570
p1781
aV0021400573
p1782
aV0021400572
p1783
aV0021401217
p1784
aV0021401216
p1785
aV0021401215
p1786
aV0021400592
p1787
aV0021401213
p1788
aV0021401212
p1789
aV0021400472
p1790
aV0021400473
p1791
aV0021400346
p1792
aV0021400849
p1793
aV0021400344
p1794
aV0021400345
p1795
aV0021400478
p1796
aV0021400479
p1797
aV0021400340
p1798
aV0021400848
p1799
aV0021400188
p1800
aV0021400189
p1801
aV0021400449
p1802
aV0021400222
p1803
aV0021400225
p1804
aV0021400224
p1805
aV0021400227
p1806
aV0021400226
p1807
aV0021400229
p1808
aV0021400228
p1809
aV0021400182
p1810
aV0021400183
p1811
aV0021400184
p1812
aV0021400185
p1813
aV0021400186
p1814
aV0021400187
p1815
aV0021400851
p1816
aV0021400448
p1817
aV0021400788
p1818
aV0021400789
p1819
aV0021400786
p1820
aV0021400787
p1821
aV0021400784
p1822
aV0021400785
p1823
aV0021400782
p1824
aV0021400469
p1825
aV0021400780
p1826
aV0021400781
p1827
aV0021401060
p1828
aV0021401061
p1829
aV0021401062
p1830
aV0021401063
p1831
aV0021401064
p1832
aV0021401065
p1833
aV0021401066
p1834
aV0021401067
p1835
aV0021401068
p1836
aV0021401102
p1837
aV0021401101
p1838
aV0021401100
p1839
aV0021401107
p1840
aV0021401106
p1841
aV0021401105
p1842
aV0021401104
p1843
aV0021400980
p1844
aV0021400981
p1845
aV0021400982
p1846
aV0021400983
p1847
aV0021400984
p1848
aV0021400985
p1849
aV0021400986
p1850
aV0021400987
p1851
aV0021400823
p1852
aV0021400989
p1853
aV0021400821
p1854
aV0021400820
p1855
aV0021400827
p1856
aV0021400826
p1857
aV0021400825
p1858
aV0021400824
p1859
aV0021400548
p1860
aV0021400298
p1861
aV0021400299
p1862
aV0021400462
p1863
aV0021400294
p1864
aV0021400295
p1865
aV0021400296
p1866
aV0021400297
p1867
aV0021400290
p1868
aV0021401137
p1869
aV0021400292
p1870
aV0021400293
p1871
aV0021400759
p1872
aV0021400968
p1873
aV0021400969
p1874
aV0021400758
p1875
aV0021400962
p1876
aV0021400963
p1877
aV0021400960
p1878
aV0021400961
p1879
aV0021400966
p1880
aV0021400967
p1881
aV0021400964
p1882
aV0021400965
p1883
aV0021400092
p1884
aV0021400093
p1885
aV0021400090
p1886
aV0021400091
p1887
aV0021400096
p1888
aV0021400097
p1889
aV0021400094
p1890
aV0021400095
p1891
aV0021401225
p1892
aV0021400098
p1893
aV0021400099
p1894
aV0021400442
p1895
aV0021400715
p1896
aV0021400714
p1897
aV0021400717
p1898
aV0021400716
p1899
aV0021400711
p1900
aV0021400659
p1901
aV0021400713
p1902
aV0021400712
p1903
aV0021400654
p1904
aV0021400655
p1905
aV0021400656
p1906
aV0021400657
p1907
aV0021400650
p1908
aV0021400651
p1909
aV0021400652
p1910
aV0021400718
p1911
aV0021400919
p1912
aV0021400918
p1913
aV0021400917
p1914
aV0021400916
p1915
aV0021400915
p1916
aV0021400914
p1917
aV0021400913
p1918
aV0021400912
p1919
aV0021400911
p1920
aV0021400910
p1921
aV0021400431
p1922
aV0021400068
p1923
aV0021400740
p1924
aV0021400757
p1925
aV0021401210
p1926
aV0021400621
p1927
aV0021401182
p1928
aV0021400059
p1929
aV0021400065
p1930
aV0021400325
p1931
aV0021400009
p1932
aV0021400008
p1933
aV0021400001
p1934
aV0021400003
p1935
aV0021400002
p1936
aV0021400005
p1937
aV0021400004
p1938
aV0021400007
p1939
aV0021400006
p1940
aV0021401088
p1941
aV0021401089
p1942
aV0021401082
p1943
aV0021401083
p1944
aV0021401080
p1945
aV0021401081
p1946
aV0021401086
p1947
aV0021401087
p1948
aV0021401084
p1949
aV0021401085
p1950
aV0021400430
p1951
aV0021400706
p1952
aV0021400432
p1953
aV0021400433
p1954
aV0021400434
p1955
aV0021400435
p1956
aV0021400436
p1957
aV0021400707
p1958
aV0021400438
p1959
aV0021400439
p1960
aV0021400941
p1961
aV0021400623
p1962
aV0021400269
p1963
aV0021400268
p1964
aV0021400265
p1965
aV0021400264
p1966
aV0021400267
p1967
aV0021400266
p1968
aV0021400261
p1969
aV0021400260
p1970
aV0021400263
p1971
aV0021400262
p1972
aV0021400144
p1973
aV0021400145
p1974
aV0021400146
p1975
aV0021400147
p1976
aV0021400140
p1977
aV0021400141
p1978
aV0021400142
p1979
aV0021400143
p1980
aV0021400213
p1981
aV0021400148
p1982
aV0021400149
p1983
aV0021400051
p1984
aV0021400488
p1985
aV0021401229
p1986
aV0021400935
p1987
aV0021400662
p1988
aV0021400218
p1989
aV0021400556
p1990
aV0021400219
p1991
aV0021400504
p1992
aV0021400505
p1993
aV0021401145
p1994
aV0021401144
p1995
aV0021400500
p1996
aV0021400501
p1997
aV0021400502
p1998
aV0021401140
p1999
aV0021401226
p2000
aV0021401227
p2001
aV0021401224
p2002
aV0021400709
p2003
aV0021401222
p2004
aV0021401223
p2005
aV0021401220
p2006
aV0021401148
p2007
aV0021400311
p2008
aV0021400310
p2009
aV0021400313
p2010
aV0021400312
p2011
aV0021400315
p2012
aV0021400862
p2013
aV0021400317
p2014
aV0021400860
p2015
aV0021400319
p2016
aV0021400318
p2017
aV0021400932
p2018
aV0021400869
p2019
aV0021400868
p2020
aV0021400589
p2021
aV0021401103
p2022
aV0021400926
p2023
aV0021400636
p2024
aV0021400924
p2025
aV0021400925
p2026
aV0021400922
p2027
aV0021400923
p2028
aV0021400920
p2029
aV0021400921
p2030
aV0021400881
p2031
aV0021400880
p2032
aV0021400883
p2033
aV0021400882
p2034
aV0021400885
p2035
aV0021401013
p2036
aV0021400928
p2037
aV0021400929
p2038
aV0021400618
p2039
aV0021400619
p2040
aV0021401039
p2041
aV0021401038
p2042
aV0021400528
p2043
aV0021401033
p2044
aV0021401032
p2045
aV0021401031
p2046
aV0021401030
p2047
aV0021401037
p2048
aV0021401036
p2049
aV0021401035
p2050
aV0021401034
p2051
aV0021400593
p2052
aV0021401133
p2053
aV0021401130
p2054
aV0021401188
p2055
aV0021400597
p2056
aV0021400630
p2057
aV0021400595
p2058
aV0021400594
p2059
aV0021400599
p2060
aV0021400598
p2061
aV0021400812
p2062
aV0021400813
p2063
aV0021400810
p2064
aV0021400811
p2065
aV0021400816
p2066
aV0021400817
p2067
aV0021400814
p2068
aV0021400815
p2069
aV0021400818
p2070
aV0021400819
p2071
aV0021400316
p2072
aV0021400602
p2073
aV0021400609
p2074
aV0021400608
p2075
aV0021401046
p2076
aV0021401047
p2077
aV0021400605
p2078
aV0021400045
p2079
aV0021400044
p2080
aV0021400047
p2081
aV0021400046
p2082
aV0021400768
p2083
aV0021400040
p2084
aV0021400043
p2085
aV0021400042
p2086
aV0021400764
p2087
aV0021400765
p2088
aV0021400766
p2089
aV0021400767
p2090
aV0021400049
p2091
aV0021400048
p2092
aV0021400220
p2093
aV0021400763
p2094
aV0021401134
p2095
aV0021400600
p2096
aV0021400437
p2097
aV0021401131
p2098
aV0021400100
p2099
aV0021400101
p2100
aV0021400102
p2101
aV0021400103
p2102
aV0021400104
p2103
aV0021400105
p2104
aV0021400106
p2105
aV0021400107
p2106
aV0021400108
p2107
aV0021400109
p2108
aV0021401136
p2109
aV0021400588
p2110
aV0021400601
p2111
aV0021400875
p2112
aV0021400385
p2113
aV0021400120
p2114
aV0021400540
p2115
aV0021400541
p2116
aV0021400542
p2117
aV0021400468
p2118
aV0021400544
p2119
aV0021400545
p2120
aV0021400546
p2121
aV0021400547
p2122
aV0021400463
p2123
aV0021400549
p2124
aV0021400461
p2125
aV0021400460
p2126
aV0021400467
p2127
aV0021400466
p2128
aV0021400465
p2129
aV0021400464
p2130
aV0021400359
p2131
aV0021400358
p2132
aV0021400355
p2133
aV0021400354
p2134
aV0021400357
p2135
aV0021400356
p2136
aV0021400351
p2137
aV0021400350
p2138
aV0021400353
p2139
aV0021400352
p2140
aV0021400214
p2141
aV0021400215
p2142
aV0021400216
p2143
aV0021400217
p2144
aV0021400210
p2145
aV0021400211
p2146
aV0021400199
p2147
aV0021400198
p2148
aV0021400197
p2149
aV0021400196
p2150
aV0021400195
p2151
aV0021400194
p2152
aV0021400193
p2153
aV0021400192
p2154
aV0021400191
p2155
aV0021400190
p2156
aV0021400019
p2157
aV0021401170
p2158
aV0021400080
p2159
aV0021401078
p2160
aV0021400997
p2161
aV0021401135
p2162
aV0021400799
p2163
aV0021400798
p2164
aV0021400996
p2165
aV0021400795
p2166
aV0021400794
p2167
aV0021400797
p2168
aV0021400796
p2169
aV0021400791
p2170
aV0021400790
p2171
aV0021400793
p2172
aV0021400792
p2173
aV0021401077
p2174
aV0021401076
p2175
aV0021401075
p2176
aV0021401074
p2177
aV0021401073
p2178
aV0021401072
p2179
aV0021401071
p2180
aV0021401070
p2181
aV0021401176
p2182
aV0021401177
p2183
aV0021401174
p2184
aV0021401175
p2185
aV0021401172
p2186
aV0021401173
p2187
aV0021401079
p2188
aV0021401171
p2189
aV0021400496
p2190
aV0021401147
p2191
aV0021400995
p2192
aV0021400495
p2193
aV0021400492
p2194
aV0021400493
p2195
aV0021400991
p2196
aV0021400859
p2197
aV0021400856
p2198
aV0021400857
p2199
aV0021400854
p2200
aV0021400855
p2201
aV0021400852
p2202
aV0021400853
p2203
aV0021400498
p2204
aV0021400998
p2205
aV0021400283
p2206
aV0021400282
p2207
aV0021400281
p2208
aV0021400507
p2209
aV0021400287
p2210
aV0021400286
p2211
aV0021400285
p2212
aV0021400284
p2213
aV0021401143
p2214
aV0021400289
p2215
aV0021400288
p2216
aV0021401142
p2217
aV0021400979
p2218
aV0021400978
p2219
aV0021400270
p2220
aV0021401228
p2221
aV0021400028
p2222
aV0021400971
p2223
aV0021400970
p2224
aV0021400973
p2225
aV0021400503
p2226
aV0021400975
p2227
aV0021400974
p2228
aV0021400977
p2229
aV0021400976
p2230
aV0021400081
p2231
aV0021400729
p2232
aV0021400083
p2233
aV0021400082
p2234
aV0021400085
p2235
aV0021400084
p2236
aV0021400087
p2237
aV0021400086
p2238
aV0021400376
p2239
aV0021400721
p2240
aV0021400722
p2241
aV0021400723
p2242
aV0021400724
p2243
aV0021400725
p2244
aV0021400726
p2245
aV0021400727
p2246
aV0021401002
p2247
aV0021400642
p2248
aV0021401000
p2249
aV0021400640
p2250
aV0021400647
p2251
aV0021401007
p2252
aV0021400645
p2253
aV0021400644
p2254
aV0021400508
p2255
aV0021401008
p2256
aV0021401009
p2257
aV0021400509
p2258
aV0021400280
p2259
aV0021401149
p2260
aV0021400719
p2261
aV0021401221
p2262
aV0021400867
p2263
aV0021400866
p2264
aV0021400021
p2265
aV0021400865
p2266
aV0021400347
p2267
aV0021400749
p2268
aV0021400863
p2269
aV0021400314
p2270
aV0021400474
p2271
aV0021400038
p2272
aV0021400039
p2273
aV0021400475
p2274
aV0021400034
p2275
aV0021400035
p2276
aV0021400036
p2277
aV0021400037
p2278
aV0021400030
p2279
aV0021400476
p2280
aV0021400032
p2281
aV0021400033
p2282
aV0021401099
p2283
aV0021401098
p2284
aV0021400477
p2285
aV0021400223
p2286
aV0021401091
p2287
aV0021401090
p2288
aV0021401093
p2289
aV0021400708
p2290
aV0021401095
p2291
aV0021401094
p2292
aV0021401097
p2293
aV0021401096
p2294
aV0021400427
p2295
aV0021400426
p2296
aV0021400425
p2297
aV0021400424
p2298
aV0021400423
p2299
aV0021400348
p2300
aV0021400421
p2301
aV0021400420
p2302
aV0021400349
p2303
aV0021400406
p2304
aV0021400429
p2305
aV0021400428
p2306
aV0021400250
p2307
aV0021400251
p2308
aV0021400252
p2309
aV0021400253
p2310
aV0021400254
p2311
aV0021400255
p2312
aV0021400256
p2313
aV0021400257
p2314
aV0021400153
p2315
aV0021400259
p2316
aV0021400151
p2317
aV0021400150
p2318
aV0021400157
p2319
aV0021400156
p2320
aV0021400155
p2321
aV0021400154
p2322
aV0021401208
p2323
aV0021400088
p2324
aV0021400342
p2325
aV0021401027
p2326
aV0021400371
p2327
aV0021400343
p2328
aV0021401153
p2329
aV0021401219
p2330
aV0021400237
p2331
aV0021401218
p2332
aV0021400690
p2333
aV0021400221
p2334
aV0021400519
p2335
aV0021400518
p2336
aV0021400694
p2337
aV0021400695
p2338
aV0021400696
p2339
aV0021400697
p2340
aV0021400698
p2341
aV0021400699
p2342
aV0021400511
p2343
aV0021400510
p2344
aV0021400517
p2345
aV0021400516
p2346
aV0021400515
p2347
aV0021400514
p2348
aV0021400452
p2349
aV0021400453
p2350
aV0021400450
p2351
aV0021400451
p2352
aV0021400456
p2353
aV0021400457
p2354
aV0021400454
p2355
aV0021400455
p2356
aV0021400458
p2357
aV0021400459
p2358
aV0021401230
p2359
aV0021400631
p2360
aV0021400324
p2361
aV0021400728
p2362
aV0021400326
p2363
aV0021400327
p2364
aV0021400320
p2365
aV0021400321
p2366
aV0021400322
p2367
aV0021400323
p2368
aV0021400774
p2369
aV0021400328
p2370
aV0021400329
p2371
aV0021400180
p2372
aV0021400181
p2373
aV0021400670
p2374
aV0021401012
p2375
aV0021400934
p2376
aV0021400937
p2377
aV0021400936
p2378
aV0021400931
p2379
aV0021400930
p2380
aV0021400933
p2381
aV0021400888
p2382
aV0021400720
p2383
aV0021400279
p2384
aV0021400939
p2385
aV0021400938
p2386
aV0021400089
p2387
aV0021401048
p2388
aV0021401049
p2389
aV0021400607
p2390
aV0021400606
p2391
aV0021401044
p2392
aV0021400604
p2393
aV0021400603
p2394
aV0021401043
p2395
aV0021401040
p2396
aV0021401041
p2397
aV0021401121
p2398
aV0021401120
p2399
aV0021401123
p2400
aV0021401122
p2401
aV0021401125
p2402
aV0021401124
p2403
aV0021401127
p2404
aV0021401126
p2405
aV0021401129
p2406
aV0021401128
p2407
aV0021400783
p2408
aV0021400801
p2409
aV0021400800
p2410
aV0021400803
p2411
aV0021400802
p2412
aV0021400805
p2413
aV0021400804
p2414
aV0021400807
p2415
aV0021400806
p2416
aV0021400809
p2417
aV0021400808
p2418
aV0021400271
p2419
aV0021400643
p2420
aV0021401003
p2421
aV0021401154
p2422
aV0021400641
p2423
aV0021400884
p2424
aV0021400078
p2425
aV0021400079
p2426
aV0021401001
p2427
aV0021400887
p2428
aV0021400070
p2429
aV0021400071
p2430
aV0021400072
p2431
aV0021400073
p2432
aV0021400074
p2433
aV0021400075
p2434
aV0021400076
p2435
aV0021400077
p2436
aV0021400773
p2437
aV0021400772
p2438
aV0021400771
p2439
aV0021400679
p2440
aV0021400777
p2441
aV0021401004
p2442
aV0021400775
p2443
aV0021400543
p2444
aV0021400672
p2445
aV0021400673
p2446
aV0021400779
p2447
aV0021400671
p2448
aV0021400676
p2449
aV0021400677
p2450
aV0021400674
p2451
aV0021400675
p2452
aV0021400628
p2453
aV0021400244
p2454
aV0021401198
p2455
aV0021401199
p2456
aV0021401052
p2457
aV0021401194
p2458
aV0021401195
p2459
aV0021401196
p2460
aV0021401197
p2461
aV0021401190
p2462
aV0021401191
p2463
aV0021401192
p2464
aV0021401193
p2465
atRp2466
ag2
((lp2467
V0021500208
p2468
aV0021500209
p2469
aV0021500611
p2470
aV0021500759
p2471
aV0021500617
p2472
aV0021500616
p2473
aV0021500615
p2474
aV0021500614
p2475
aV0021500752
p2476
aV0021500201
p2477
aV0021500202
p2478
aV0021500203
p2479
aV0021500204
p2480
aV0021500757
p2481
aV0021500206
p2482
aV0021500755
p2483
aV0021500610
p2484
aV0021501230
p2485
aV0021500259
p2486
aV0021500151
p2487
aV0021500510
p2488
aV0021500258
p2489
aV0021500301
p2490
aV0021500511
p2491
aV0021501189
p2492
aV0021500794
p2493
aV0021501029
p2494
aV0021500684
p2495
aV0021500685
p2496
aV0021500686
p2497
aV0021500513
p2498
aV0021500680
p2499
aV0021500681
p2500
aV0021500729
p2501
aV0021500728
p2502
aV0021500727
p2503
aV0021500726
p2504
aV0021500725
p2505
aV0021500724
p2506
aV0021500688
p2507
aV0021500619
p2508
aV0021500721
p2509
aV0021501185
p2510
aV0021501172
p2511
aV0021500687
p2512
aV0021500751
p2513
aV0021501186
p2514
aV0021500406
p2515
aV0021500756
p2516
aV0021500517
p2517
aV0021500205
p2518
aV0021500055
p2519
aV0021501023
p2520
aV0021500057
p2521
aV0021500056
p2522
aV0021500118
p2523
aV0021500050
p2524
aV0021500053
p2525
aV0021500519
p2526
aV0021500114
p2527
aV0021500115
p2528
aV0021500153
p2529
aV0021500207
p2530
aV0021500059
p2531
aV0021500111
p2532
aV0021500112
p2533
aV0021500113
p2534
aV0021500158
p2535
aV0021500958
p2536
aV0021500654
p2537
aV0021501229
p2538
aV0021500888
p2539
aV0021500760
p2540
aV0021500989
p2541
aV0021500682
p2542
aV0021500228
p2543
aV0021501072
p2544
aV0021500988
p2545
aV0021500156
p2546
aV0021500229
p2547
aV0021500700
p2548
aV0021500683
p2549
aV0021500769
p2550
aV0021500931
p2551
aV0021500572
p2552
aV0021500573
p2553
aV0021500570
p2554
aV0021500571
p2555
aV0021500576
p2556
aV0021500577
p2557
aV0021500574
p2558
aV0021500575
p2559
aV0021500578
p2560
aV0021500579
p2561
aV0021500248
p2562
aV0021500190
p2563
aV0021500407
p2564
aV0021500666
p2565
aV0021500877
p2566
aV0021500876
p2567
aV0021500875
p2568
aV0021500874
p2569
aV0021500873
p2570
aV0021500872
p2571
aV0021500871
p2572
aV0021500870
p2573
aV0021500976
p2574
aV0021500977
p2575
aV0021500974
p2576
aV0021500975
p2577
aV0021500972
p2578
aV0021501201
p2579
aV0021500879
p2580
aV0021500971
p2581
aV0021500507
p2582
aV0021500506
p2583
aV0021501195
p2584
aV0021500504
p2585
aV0021500503
p2586
aV0021501192
p2587
aV0021501191
p2588
aV0021501059
p2589
aV0021501056
p2590
aV0021501057
p2591
aV0021501054
p2592
aV0021501055
p2593
aV0021501052
p2594
aV0021501053
p2595
aV0021500509
p2596
aV0021500508
p2597
aV0021500899
p2598
aV0021500898
p2599
aV0021500714
p2600
aV0021500715
p2601
aV0021500712
p2602
aV0021500713
p2603
aV0021500710
p2604
aV0021500711
p2605
aV0021500891
p2606
aV0021500890
p2607
aV0021500893
p2608
aV0021500892
p2609
aV0021500895
p2610
aV0021500894
p2611
aV0021500718
p2612
aV0021500896
p2613
aV0021501179
p2614
aV0021500487
p2615
aV0021500484
p2616
aV0021500485
p2617
aV0021500482
p2618
aV0021500483
p2619
aV0021500480
p2620
aV0021500481
p2621
aV0021501171
p2622
aV0021501170
p2623
aV0021501173
p2624
aV0021500364
p2625
aV0021501175
p2626
aV0021501160
p2627
aV0021500488
p2628
aV0021500489
p2629
aV0021501161
p2630
aV0021501015
p2631
aV0021500306
p2632
aV0021500299
p2633
aV0021500802
p2634
aV0021500803
p2635
aV0021500800
p2636
aV0021500478
p2637
aV0021500374
p2638
aV0021500807
p2639
aV0021500804
p2640
aV0021500805
p2641
aV0021500473
p2642
aV0021500472
p2643
aV0021500808
p2644
aV0021500809
p2645
aV0021500477
p2646
aV0021500476
p2647
aV0021500475
p2648
aV0021500474
p2649
aV0021500091
p2650
aV0021500090
p2651
aV0021500628
p2652
aV0021500092
p2653
aV0021500095
p2654
aV0021500094
p2655
aV0021500097
p2656
aV0021500096
p2657
aV0021500150
p2658
aV0021500623
p2659
aV0021500152
p2660
aV0021500621
p2661
aV0021500626
p2662
aV0021500155
p2663
aV0021500624
p2664
aV0021500157
p2665
aV0021500253
p2666
aV0021500252
p2667
aV0021500398
p2668
aV0021500250
p2669
aV0021500257
p2670
aV0021500256
p2671
aV0021500255
p2672
aV0021500254
p2673
aV0021500392
p2674
aV0021500393
p2675
aV0021500390
p2676
aV0021500391
p2677
aV0021500396
p2678
aV0021500397
p2679
aV0021500394
p2680
aV0021500395
p2681
aV0021501050
p2682
aV0021500723
p2683
aV0021501103
p2684
aV0021500689
p2685
aV0021500722
p2686
aV0021500625
p2687
aV0021500521
p2688
aV0021501099
p2689
aV0021500500
p2690
aV0021500361
p2691
aV0021500659
p2692
aV0021500658
p2693
aV0021500657
p2694
aV0021500656
p2695
aV0021500655
p2696
aV0021500720
p2697
aV0021500653
p2698
aV0021500652
p2699
aV0021500651
p2700
aV0021500650
p2701
aV0021500983
p2702
aV0021500419
p2703
aV0021500450
p2704
aV0021500505
p2705
aV0021501154
p2706
aV0021500453
p2707
aV0021500360
p2708
aV0021500028
p2709
aV0021500029
p2710
aV0021500024
p2711
aV0021500025
p2712
aV0021500026
p2713
aV0021500027
p2714
aV0021500020
p2715
aV0021500021
p2716
aV0021500022
p2717
aV0021500454
p2718
aV0021501091
p2719
aV0021500985
p2720
aV0021500984
p2721
aV0021500251
p2722
aV0021500869
p2723
aV0021500939
p2724
aV0021500459
p2725
aV0021500458
p2726
aV0021501095
p2727
aV0021500514
p2728
aV0021501102
p2729
aV0021501001
p2730
aV0021501000
p2731
aV0021501003
p2732
aV0021500593
p2733
aV0021501005
p2734
aV0021501004
p2735
aV0021501007
p2736
aV0021501006
p2737
aV0021501009
p2738
aV0021501008
p2739
aV0021501105
p2740
aV0021501106
p2741
aV0021500589
p2742
aV0021500825
p2743
aV0021501013
p2744
aV0021500054
p2745
aV0021500051
p2746
aV0021500119
p2747
aV0021500442
p2748
aV0021500082
p2749
aV0021500440
p2750
aV0021500441
p2751
aV0021500998
p2752
aV0021500999
p2753
aV0021500444
p2754
aV0021500445
p2755
aV0021500994
p2756
aV0021500995
p2757
aV0021500996
p2758
aV0021500449
p2759
aV0021500990
p2760
aV0021500991
p2761
aV0021500992
p2762
aV0021500993
p2763
aV0021501135
p2764
aV0021501134
p2765
aV0021501137
p2766
aV0021501136
p2767
aV0021501131
p2768
aV0021501130
p2769
aV0021501133
p2770
aV0021501132
p2771
aV0021501139
p2772
aV0021500116
p2773
aV0021500806
p2774
aV0021500117
p2775
aV0021500218
p2776
aV0021500848
p2777
aV0021500849
p2778
aV0021500846
p2779
aV0021500847
p2780
aV0021500844
p2781
aV0021500845
p2782
aV0021500842
p2783
aV0021500843
p2784
aV0021500840
p2785
aV0021500841
p2786
aV0021500437
p2787
aV0021500436
p2788
aV0021500923
p2789
aV0021500922
p2790
aV0021500433
p2791
aV0021500924
p2792
aV0021500927
p2793
aV0021500539
p2794
aV0021500980
p2795
aV0021500928
p2796
aV0021500534
p2797
aV0021500535
p2798
aV0021500532
p2799
aV0021500533
p2800
aV0021500530
p2801
aV0021500821
p2802
aV0021500749
p2803
aV0021500748
p2804
aV0021500664
p2805
aV0021500665
p2806
aV0021500662
p2807
aV0021500663
p2808
aV0021500219
p2809
aV0021500661
p2810
aV0021500217
p2811
aV0021500740
p2812
aV0021500399
p2813
aV0021500742
p2814
aV0021500198
p2815
aV0021500199
p2816
aV0021500747
p2817
aV0021500669
p2818
aV0021500300
p2819
aV0021501228
p2820
aV0021500414
p2821
aV0021501221
p2822
aV0021501220
p2823
aV0021501223
p2824
aV0021501222
p2825
aV0021501225
p2826
aV0021501224
p2827
aV0021501227
p2828
aV0021501226
p2829
aV0021500699
p2830
aV0021500698
p2831
aV0021500693
p2832
aV0021500692
p2833
aV0021500691
p2834
aV0021500690
p2835
aV0021500697
p2836
aV0021500696
p2837
aV0021500695
p2838
aV0021500694
p2839
aV0021500280
p2840
aV0021500281
p2841
aV0021500329
p2842
aV0021500283
p2843
aV0021500284
p2844
aV0021500285
p2845
aV0021500286
p2846
aV0021500287
p2847
aV0021500288
p2848
aV0021500289
p2849
aV0021500321
p2850
aV0021500320
p2851
aV0021500327
p2852
aV0021500326
p2853
aV0021500325
p2854
aV0021500324
p2855
aV0021500068
p2856
aV0021500069
p2857
aV0021501141
p2858
aV0021500060
p2859
aV0021500061
p2860
aV0021500062
p2861
aV0021500063
p2862
aV0021500064
p2863
aV0021500065
p2864
aV0021500066
p2865
aV0021500826
p2866
aV0021500103
p2867
aV0021500102
p2868
aV0021500268
p2869
aV0021500269
p2870
aV0021500107
p2871
aV0021500106
p2872
aV0021500105
p2873
aV0021500104
p2874
aV0021500262
p2875
aV0021500263
p2876
aV0021500260
p2877
aV0021500108
p2878
aV0021500266
p2879
aV0021500267
p2880
aV0021500264
p2881
aV0021500265
p2882
aV0021500169
p2883
aV0021500431
p2884
aV0021500586
p2885
aV0021500241
p2886
aV0021500372
p2887
aV0021500605
p2888
aV0021501151
p2889
aV0021500529
p2890
aV0021500528
p2891
aV0021500362
p2892
aV0021500584
p2893
aV0021500430
p2894
aV0021500439
p2895
aV0021500328
p2896
aV0021500603
p2897
aV0021500195
p2898
aV0021500526
p2899
aV0021500743
p2900
aV0021500420
p2901
aV0021500520
p2902
aV0021500358
p2903
aV0021500052
p2904
aV0021500668
p2905
aV0021500230
p2906
aV0021500561
p2907
aV0021500560
p2908
aV0021500563
p2909
aV0021500562
p2910
aV0021500565
p2911
aV0021500564
p2912
aV0021500567
p2913
aV0021500566
p2914
aV0021500569
p2915
aV0021500568
p2916
aV0021500536
p2917
aV0021500200
p2918
aV0021500512
p2919
aV0021500778
p2920
aV0021500982
p2921
aV0021500779
p2922
aV0021500997
p2923
aV0021500969
p2924
aV0021500968
p2925
aV0021500965
p2926
aV0021500964
p2927
aV0021500967
p2928
aV0021500966
p2929
aV0021500961
p2930
aV0021500960
p2931
aV0021500963
p2932
aV0021500962
p2933
aV0021500261
p2934
aV0021501159
p2935
aV0021501048
p2936
aV0021501049
p2937
aV0021501045
p2938
aV0021501044
p2939
aV0021501047
p2940
aV0021501046
p2941
aV0021501041
p2942
aV0021501040
p2943
aV0021501043
p2944
aV0021501042
p2945
aV0021500705
p2946
aV0021500704
p2947
aV0021500707
p2948
aV0021500706
p2949
aV0021500316
p2950
aV0021500317
p2951
aV0021500314
p2952
aV0021500315
p2953
aV0021500770
p2954
aV0021500318
p2955
aV0021500319
p2956
aV0021500709
p2957
aV0021500708
p2958
aV0021500771
p2959
aV0021500495
p2960
aV0021500494
p2961
aV0021500497
p2962
aV0021500496
p2963
aV0021501148
p2964
aV0021501149
p2965
aV0021500493
p2966
aV0021500492
p2967
aV0021501144
p2968
aV0021501145
p2969
aV0021501146
p2970
aV0021501147
p2971
aV0021501140
p2972
aV0021500498
p2973
aV0021501142
p2974
aV0021501143
p2975
aV0021500647
p2976
aV0021500643
p2977
aV0021500798
p2978
aV0021500799
p2979
aV0021500451
p2980
aV0021500797
p2981
aV0021500629
p2982
aV0021500795
p2983
aV0021500792
p2984
aV0021500793
p2985
aV0021500790
p2986
aV0021500791
p2987
aV0021500811
p2988
aV0021500366
p2989
aV0021500813
p2990
aV0021500812
p2991
aV0021500815
p2992
aV0021500814
p2993
aV0021500408
p2994
aV0021500409
p2995
aV0021500819
p2996
aV0021500818
p2997
aV0021500404
p2998
aV0021500405
p2999
aV0021500402
p3000
aV0021500403
p3001
aV0021500369
p3002
aV0021500368
p3003
aV0021500639
p3004
aV0021500638
p3005
aV0021500014
p3006
aV0021500149
p3007
aV0021500313
p3008
aV0021500147
p3009
aV0021500146
p3010
aV0021500145
p3011
aV0021500144
p3012
aV0021500635
p3013
aV0021500634
p3014
aV0021500141
p3015
aV0021500636
p3016
aV0021500226
p3017
aV0021500227
p3018
aV0021500224
p3019
aV0021500225
p3020
aV0021500222
p3021
aV0021500223
p3022
aV0021500220
p3023
aV0021500221
p3024
aV0021500381
p3025
aV0021500701
p3026
aV0021500383
p3027
aV0021500382
p3028
aV0021500385
p3029
aV0021500384
p3030
aV0021500387
p3031
aV0021500386
p3032
aV0021500703
p3033
aV0021500702
p3034
aV0021500058
p3035
aV0021500429
p3036
aV0021500438
p3037
aV0021500828
p3038
aV0021500099
p3039
aV0021500502
p3040
aV0021500613
p3041
aV0021501118
p3042
aV0021500388
p3043
aV0021500033
p3044
aV0021500032
p3045
aV0021500138
p3046
aV0021500030
p3047
aV0021500037
p3048
aV0021500036
p3049
aV0021500035
p3050
aV0021500034
p3051
aV0021500132
p3052
aV0021500133
p3053
aV0021500130
p3054
aV0021500038
p3055
aV0021500136
p3056
aV0021500137
p3057
aV0021500134
p3058
aV0021500135
p3059
aV0021500455
p3060
aV0021500612
p3061
aV0021500018
p3062
aV0021501117
p3063
aV0021500491
p3064
aV0021500249
p3065
aV0021500490
p3066
aV0021500622
p3067
aV0021501035
p3068
aV0021501036
p3069
aV0021501037
p3070
aV0021501030
p3071
aV0021501031
p3072
aV0021501032
p3073
aV0021501033
p3074
aV0021501038
p3075
aV0021501039
p3076
aV0021500110
p3077
aV0021500446
p3078
aV0021500447
p3079
aV0021500012
p3080
aV0021501115
p3081
aV0021500499
p3082
aV0021500389
p3083
aV0021500448
p3084
aV0021500598
p3085
aV0021500599
p3086
aV0021500981
p3087
aV0021500452
p3088
aV0021500987
p3089
aV0021500986
p3090
aV0021500457
p3091
aV0021500456
p3092
aV0021501100
p3093
aV0021501101
p3094
aV0021500592
p3095
aV0021500359
p3096
aV0021501104
p3097
aV0021500595
p3098
aV0021500596
p3099
aV0021501107
p3100
aV0021501200
p3101
aV0021500357
p3102
aV0021500023
p3103
aV0021500401
p3104
aV0021500129
p3105
aV0021501113
p3106
aV0021500355
p3107
aV0021500859
p3108
aV0021500858
p3109
aV0021500758
p3110
aV0021500855
p3111
aV0021500854
p3112
aV0021500857
p3113
aV0021500856
p3114
aV0021500851
p3115
aV0021500850
p3116
aV0021500853
p3117
aV0021500852
p3118
aV0021500914
p3119
aV0021500915
p3120
aV0021500916
p3121
aV0021500917
p3122
aV0021500910
p3123
aV0021500911
p3124
aV0021500912
p3125
aV0021500913
p3126
aV0021500525
p3127
aV0021500524
p3128
aV0021500527
p3129
aV0021500351
p3130
aV0021500918
p3131
aV0021500919
p3132
aV0021500523
p3133
aV0021500522
p3134
aV0021500675
p3135
aV0021500674
p3136
aV0021500677
p3137
aV0021500676
p3138
aV0021500671
p3139
aV0021500670
p3140
aV0021500673
p3141
aV0021500672
p3142
aV0021500774
p3143
aV0021500775
p3144
aV0021500776
p3145
aV0021500777
p3146
aV0021500679
p3147
aV0021500678
p3148
aV0021500772
p3149
aV0021500773
p3150
aV0021501218
p3151
aV0021501219
p3152
aV0021501214
p3153
aV0021501215
p3154
aV0021501216
p3155
aV0021501217
p3156
aV0021501210
p3157
aV0021501211
p3158
aV0021501212
p3159
aV0021501213
p3160
aV0021500312
p3161
aV0021500367
p3162
aV0021500810
p3163
aV0021500039
p3164
aV0021500365
p3165
aV0021501138
p3166
aV0021500297
p3167
aV0021500296
p3168
aV0021500295
p3169
aV0021500294
p3170
aV0021500293
p3171
aV0021500292
p3172
aV0021500291
p3173
aV0021500290
p3174
aV0021500356
p3175
aV0021500363
p3176
aV0021500354
p3177
aV0021500126
p3178
aV0021500352
p3179
aV0021500353
p3180
aV0021500350
p3181
aV0021500298
p3182
aV0021500074
p3183
aV0021500817
p3184
aV0021500079
p3185
aV0021500078
p3186
aV0021500077
p3187
aV0021500076
p3188
aV0021500075
p3189
aV0021500816
p3190
aV0021500073
p3191
aV0021500072
p3192
aV0021500071
p3193
aV0021500070
p3194
aV0021500176
p3195
aV0021500177
p3196
aV0021500174
p3197
aV0021500175
p3198
aV0021500172
p3199
aV0021500173
p3200
aV0021500170
p3201
aV0021500171
p3202
aV0021500590
p3203
aV0021500270
p3204
aV0021500273
p3205
aV0021500272
p3206
aV0021500310
p3207
aV0021500274
p3208
aV0021500277
p3209
aV0021500276
p3210
aV0021500279
p3211
aV0021501034
p3212
aV0021500278
p3213
aV0021500796
p3214
aV0021500238
p3215
aV0021500189
p3216
aV0021500188
p3217
aV0021501174
p3218
aV0021500400
p3219
aV0021500591
p3220
aV0021500183
p3221
aV0021500182
p3222
aV0021500311
p3223
aV0021500180
p3224
aV0021500187
p3225
aV0021500186
p3226
aV0021500185
p3227
aV0021500184
p3228
aV0021500829
p3229
aV0021501194
p3230
aV0021500618
p3231
aV0021500271
p3232
aV0021501177
p3233
aV0021500009
p3234
aV0021500002
p3235
aV0021500003
p3236
aV0021500001
p3237
aV0021500006
p3238
aV0021500007
p3239
aV0021500004
p3240
aV0021500005
p3241
aV0021500549
p3242
aV0021500920
p3243
aV0021500275
p3244
aV0021500148
p3245
aV0021500435
p3246
aV0021501176
p3247
aV0021500631
p3248
aV0021500434
p3249
aV0021500128
p3250
aV0021500178
p3251
aV0021500630
p3252
aV0021500925
p3253
aV0021500179
p3254
aV0021500633
p3255
aV0021500432
p3256
aV0021500554
p3257
aV0021500555
p3258
aV0021500556
p3259
aV0021500632
p3260
aV0021500550
p3261
aV0021500538
p3262
aV0021500552
p3263
aV0021500553
p3264
aV0021500143
p3265
aV0021500926
p3266
aV0021500558
p3267
aV0021500559
p3268
aV0021500142
p3269
aV0021500594
p3270
aV0021500929
p3271
aV0021500753
p3272
aV0021500637
p3273
aV0021500537
p3274
aV0021500194
p3275
aV0021500140
p3276
aV0021500950
p3277
aV0021500951
p3278
aV0021500952
p3279
aV0021500953
p3280
aV0021500954
p3281
aV0021500955
p3282
aV0021500956
p3283
aV0021500957
p3284
aV0021501108
p3285
aV0021500959
p3286
aV0021500979
p3287
aV0021501070
p3288
aV0021501071
p3289
aV0021500750
p3290
aV0021501073
p3291
aV0021501074
p3292
aV0021501075
p3293
aV0021501076
p3294
aV0021501077
p3295
aV0021501078
p3296
aV0021501079
p3297
aV0021501202
p3298
aV0021500531
p3299
aV0021501190
p3300
aV0021500609
p3301
aV0021500978
p3302
aV0021500303
p3303
aV0021500302
p3304
aV0021500305
p3305
aV0021500304
p3306
aV0021500307
p3307
aV0021500667
p3308
aV0021500309
p3309
aV0021500308
p3310
aV0021500196
p3311
aV0021500973
p3312
aV0021501153
p3313
aV0021501152
p3314
aV0021501098
p3315
aV0021501150
p3316
aV0021501157
p3317
aV0021501156
p3318
aV0021501155
p3319
aV0021500380
p3320
aV0021501092
p3321
aV0021501093
p3322
aV0021501090
p3323
aV0021501158
p3324
aV0021501096
p3325
aV0021501097
p3326
aV0021501094
p3327
aV0021500191
p3328
aV0021501197
p3329
aV0021500789
p3330
aV0021500788
p3331
aV0021501196
p3332
aV0021500785
p3333
aV0021500784
p3334
aV0021500787
p3335
aV0021500786
p3336
aV0021500781
p3337
aV0021500780
p3338
aV0021500783
p3339
aV0021500782
p3340
aV0021500824
p3341
aV0021500741
p3342
aV0021500197
p3343
aV0021500827
p3344
aV0021500820
p3345
aV0021500418
p3346
aV0021500822
p3347
aV0021500823
p3348
aV0021500415
p3349
aV0021501193
p3350
aV0021500417
p3351
aV0021500416
p3352
aV0021500411
p3353
aV0021500410
p3354
aV0021500413
p3355
aV0021500412
p3356
aV0021500214
p3357
aV0021500608
p3358
aV0021500501
p3359
aV0021500604
p3360
aV0021500745
p3361
aV0021500606
p3362
aV0021500607
p3363
aV0021500600
p3364
aV0021500601
p3365
aV0021500602
p3366
aV0021500744
p3367
aV0021500235
p3368
aV0021500234
p3369
aV0021500237
p3370
aV0021500236
p3371
aV0021500231
p3372
aV0021500543
p3373
aV0021500233
p3374
aV0021500232
p3375
aV0021500746
p3376
aV0021500239
p3377
aV0021500181
p3378
aV0021501058
p3379
aV0021500754
p3380
aV0021500940
p3381
aV0021500738
p3382
aV0021500739
p3383
aV0021500443
p3384
aV0021501199
p3385
aV0021500921
p3386
aV0021500730
p3387
aV0021500731
p3388
aV0021500732
p3389
aV0021500733
p3390
aV0021500734
p3391
aV0021500735
p3392
aV0021500736
p3393
aV0021500737
p3394
aV0021500716
p3395
aV0021500717
p3396
aV0021500192
p3397
aV0021500878
p3398
aV0021500046
p3399
aV0021500047
p3400
aV0021500044
p3401
aV0021500045
p3402
aV0021500042
p3403
aV0021500043
p3404
aV0021500040
p3405
aV0021500041
p3406
aV0021500121
p3407
aV0021500120
p3408
aV0021500123
p3409
aV0021500122
p3410
aV0021500125
p3411
aV0021500124
p3412
aV0021500127
p3413
aV0021500049
p3414
aV0021500863
p3415
aV0021500193
p3416
aV0021501109
p3417
aV0021500048
p3418
aV0021500768
p3419
aV0021500897
p3420
aV0021500719
p3421
aV0021500215
p3422
aV0021500486
p3423
aV0021501178
p3424
aV0021500008
p3425
aV0021500322
p3426
aV0021501198
p3427
aV0021500660
p3428
aV0021500970
p3429
aV0021501068
p3430
aV0021501002
p3431
aV0021500464
p3432
aV0021500465
p3433
aV0021500466
p3434
aV0021500467
p3435
aV0021500460
p3436
aV0021500461
p3437
aV0021501119
p3438
aV0021500463
p3439
aV0021500587
p3440
aV0021500423
p3441
aV0021500585
p3442
aV0021500518
p3443
aV0021500468
p3444
aV0021500582
p3445
aV0021501111
p3446
aV0021500580
p3447
aV0021500282
p3448
aV0021500331
p3449
aV0021500860
p3450
aV0021500861
p3451
aV0021500909
p3452
aV0021500908
p3453
aV0021500864
p3454
aV0021500865
p3455
aV0021500866
p3456
aV0021500867
p3457
aV0021500903
p3458
aV0021500902
p3459
aV0021500901
p3460
aV0021500900
p3461
aV0021500907
p3462
aV0021500906
p3463
aV0021500905
p3464
aV0021500904
p3465
aV0021501180
p3466
aV0021501181
p3467
aV0021501182
p3468
aV0021501183
p3469
aV0021501184
p3470
aV0021500515
p3471
aV0021500516
p3472
aV0021501187
p3473
aV0021501188
p3474
aV0021501022
p3475
aV0021501021
p3476
aV0021501020
p3477
aV0021501027
p3478
aV0021501026
p3479
aV0021501025
p3480
aV0021501024
p3481
aV0021500763
p3482
aV0021500762
p3483
aV0021500761
p3484
aV0021500889
p3485
aV0021500767
p3486
aV0021500766
p3487
aV0021500765
p3488
aV0021500764
p3489
aV0021500882
p3490
aV0021500883
p3491
aV0021500880
p3492
aV0021500881
p3493
aV0021500886
p3494
aV0021500887
p3495
aV0021500884
p3496
aV0021500885
p3497
aV0021501203
p3498
aV0021500323
p3499
aV0021501168
p3500
aV0021501169
p3501
aV0021501207
p3502
aV0021501206
p3503
aV0021501205
p3504
aV0021501204
p3505
aV0021501162
p3506
aV0021501163
p3507
aV0021501209
p3508
aV0021501208
p3509
aV0021501166
p3510
aV0021501167
p3511
aV0021501164
p3512
aV0021501165
p3513
aV0021501089
p3514
aV0021500216
p3515
aV0021501127
p3516
aV0021500031
p3517
aV0021501051
p3518
aV0021500139
p3519
aV0021500349
p3520
aV0021500348
p3521
aV0021500862
p3522
aV0021500345
p3523
aV0021500344
p3524
aV0021500347
p3525
aV0021500346
p3526
aV0021500341
p3527
aV0021500340
p3528
aV0021500343
p3529
aV0021500342
p3530
aV0021500469
p3531
aV0021500083
p3532
aV0021500080
p3533
aV0021500081
p3534
aV0021500086
p3535
aV0021500087
p3536
aV0021500084
p3537
aV0021500085
p3538
aV0021500088
p3539
aV0021500089
p3540
aV0021500165
p3541
aV0021500164
p3542
aV0021500167
p3543
aV0021500166
p3544
aV0021500161
p3545
aV0021500160
p3546
aV0021500163
p3547
aV0021500162
p3548
aV0021500244
p3549
aV0021500245
p3550
aV0021500246
p3551
aV0021500247
p3552
aV0021500240
p3553
aV0021500168
p3554
aV0021500242
p3555
aV0021500243
p3556
aV0021500370
p3557
aV0021500131
p3558
aV0021500462
p3559
aV0021500371
p3560
aV0021500541
p3561
aV0021500588
p3562
aV0021500479
p3563
aV0021500648
p3564
aV0021500649
p3565
aV0021500373
p3566
aV0021501087
p3567
aV0021501116
p3568
aV0021500640
p3569
aV0021500641
p3570
aV0021500642
p3571
aV0021501086
p3572
aV0021500644
p3573
aV0021500645
p3574
aV0021500646
p3575
aV0021500375
p3576
aV0021500213
p3577
aV0021501114
p3578
aV0021500376
p3579
aV0021500583
p3580
aV0021500377
p3581
aV0021501112
p3582
aV0021500019
p3583
aV0021500378
p3584
aV0021500212
p3585
aV0021500581
p3586
aV0021500379
p3587
aV0021500011
p3588
aV0021500010
p3589
aV0021500013
p3590
aV0021501110
p3591
aV0021500015
p3592
aV0021500471
p3593
aV0021500017
p3594
aV0021500016
p3595
aV0021500470
p3596
aV0021500101
p3597
aV0021500100
p3598
aV0021500597
p3599
aV0021500211
p3600
aV0021501012
p3601
aV0021501028
p3602
aV0021501010
p3603
aV0021501011
p3604
aV0021501016
p3605
aV0021501017
p3606
aV0021501014
p3607
aV0021500159
p3608
aV0021500801
p3609
aV0021501018
p3610
aV0021501019
p3611
aV0021500093
p3612
aV0021500557
p3613
aV0021500210
p3614
aV0021500067
p3615
aV0021500109
p3616
aV0021500098
p3617
aV0021500551
p3618
aV0021500947
p3619
aV0021500946
p3620
aV0021500945
p3621
aV0021500944
p3622
aV0021500943
p3623
aV0021500942
p3624
aV0021500941
p3625
aV0021500421
p3626
aV0021500868
p3627
aV0021500930
p3628
aV0021500949
p3629
aV0021500948
p3630
aV0021501067
p3631
aV0021501066
p3632
aV0021501065
p3633
aV0021501064
p3634
aV0021501063
p3635
aV0021501062
p3636
aV0021501061
p3637
aV0021501060
p3638
aV0021500424
p3639
aV0021500620
p3640
aV0021501069
p3641
aV0021500425
p3642
aV0021500334
p3643
aV0021500335
p3644
aV0021500336
p3645
aV0021500337
p3646
aV0021500330
p3647
aV0021500934
p3648
aV0021500332
p3649
aV0021500333
p3650
aV0021500154
p3651
aV0021500427
p3652
aV0021500338
p3653
aV0021500339
p3654
aV0021500627
p3655
aV0021501126
p3656
aV0021501088
p3657
aV0021501124
p3658
aV0021501125
p3659
aV0021501122
p3660
aV0021501123
p3661
aV0021501120
p3662
aV0021501121
p3663
aV0021501081
p3664
aV0021501080
p3665
aV0021501083
p3666
aV0021501082
p3667
aV0021501085
p3668
aV0021501084
p3669
aV0021501128
p3670
aV0021501129
p3671
aV0021500839
p3672
aV0021500838
p3673
aV0021500833
p3674
aV0021500832
p3675
aV0021500831
p3676
aV0021500830
p3677
aV0021500837
p3678
aV0021500836
p3679
aV0021500835
p3680
aV0021500834
p3681
aV0021500932
p3682
aV0021500933
p3683
aV0021500422
p3684
aV0021500548
p3685
aV0021500936
p3686
aV0021500937
p3687
aV0021500426
p3688
aV0021500935
p3689
aV0021500428
p3690
aV0021500542
p3691
aV0021500938
p3692
aV0021500540
p3693
aV0021500547
p3694
aV0021500546
p3695
aV0021500545
p3696
aV0021500544
p3697
atRp3698
a.